Microchip Technology Inc, v1.36 (B)

Tool Name:
  c:\program files (x86)\microchip\xc16\v1.36\bin\bin\..\bin/elf-ld.exe

Command:
  -p24FJ1024GA606 \
  -o \
  dist/default/production/MobitLock.production.elf \
  -Lc:/program files (x86)/microchip/xc16/v1.36/bin/bin/.. \
  -Lc:/program files (x86)/microchip/xc16/v1.36/bin/bin/../../lib \
  -Lc:/program files (x86)/microchip/xc16/v1.36/bin/bin/../../support/PIC24E/gld \
  -Lc:/program files (x86)/microchip/xc16/v1.36/bin/bin/../../support/PIC24F/gld \
  -Lc:/program files (x86)/microchip/xc16/v1.36/bin/bin/../../support/PIC24H/gld \
  -Lc:/program files (x86)/microchip/xc16/v1.36/bin/bin/../../support/dsPIC30F/gld \
  -Lc:/program files (x86)/microchip/xc16/v1.36/bin/bin/../../support/dsPIC33C/gld \
  -Lc:/program files (x86)/microchip/xc16/v1.36/bin/bin/../../support/dsPIC33E/gld \
  -Lc:/program files (x86)/microchip/xc16/v1.36/bin/bin/../../support/dsPIC33F/gld \
  build/default/production/000_Main.o \
  build/default/production/001_Tick_10ms.o \
  build/default/production/002_CLRC663.o \
  build/default/production/003_BG96.o \
  build/default/production/004_LB1938.o \
  build/default/production/005_BNO055.o \
  build/default/production/006_Gpio.o \
  build/default/production/007_Uart.o \
  build/default/production/008_RingBuffer.o \
  build/default/production/009_System.o \
  build/default/production/012_CLRC663_NFC.o \
  build/default/production/011_Spi.o \
  build/default/production/013_Protocol.o \
  build/default/production/014_md5.o \
  --local-stack \
  --defsym=__MPLAB_BUILD=1 \
  -Tp24FJ1024GA606.gld.00 \
  --stack=16 \
  --check-sections \
  --data-init \
  --pack-data \
  --handles \
  --isr \
  --no-gc-sections \
  --fill-upper=0 \
  --stackguard=16 \
  --no-force-link \
  --smart-io \
  -Map=dist/default/production/MobitLock.production.map \
  --report-mem \
  --memorysummary \
  dist/default/production/memoryfile.xml \
  -start-group \
  --library=lega-pic30-elf \
  --library=m-elf \
  --library=lega-c-elf \
  -end-group \


Optional library libpPIC24Fxxx.a not found
Archive member included because of file (symbol)

c:/program files (x86)/microchip/xc16/v1.36/bin/bin/../../lib\liblega-pic30-elf.a(crt0_extended24.o)
                              (__resetPRI)
c:/program files (x86)/microchip/xc16/v1.36/bin/bin/../../lib\liblega-pic30-elf.a(data_init_24.o)
                              c:/program files (x86)/microchip/xc16/v1.36/bin/bin/../../lib\liblega-pic30-elf.a(crt0_extended24.o) (__data_init_da)
c:/program files (x86)/microchip/xc16/v1.36/bin/bin/../../lib\liblega-pic30-elf.a(crt_start_mode_normalda.Leo)
                              (__crt_start_mode_normal)
c:/program files (x86)/microchip/xc16/v1.36/bin/bin/../../lib\libm-elf.a(divsf3.daeo)
                              build/default/production/005_BNO055.o (___divsf3)
c:/program files (x86)/microchip/xc16/v1.36/bin/bin/../../lib\libm-elf.a(floatsisf.daeo)
                              build/default/production/005_BNO055.o (___floatsisf)
c:/program files (x86)/microchip/xc16/v1.36/bin/bin/../../lib\libm-elf.a(fpack.daeo)
                              c:/program files (x86)/microchip/xc16/v1.36/bin/bin/../../lib\libm-elf.a(divsf3.daeo) (__fpack)
c:/program files (x86)/microchip/xc16/v1.36/bin/bin/../../lib\libm-elf.a(funpack2.daeo)
                              c:/program files (x86)/microchip/xc16/v1.36/bin/bin/../../lib\libm-elf.a(divsf3.daeo) (__funpack2)
c:/program files (x86)/microchip/xc16/v1.36/bin/bin/../../lib\libm-elf.a(futil.daeo)
                              c:/program files (x86)/microchip/xc16/v1.36/bin/bin/../../lib\libm-elf.a(divsf3.daeo) (__fPropagateNaN)
c:/program files (x86)/microchip/xc16/v1.36/bin/bin/../../lib\libm-elf.a(udivsi3.daeo)
                              build/default/production/001_Tick_10ms.o (___udivsi3)
c:/program files (x86)/microchip/xc16/v1.36/bin/bin/../../lib\libm-elf.a(umodsi3.daeo)
                              build/default/production/001_Tick_10ms.o (___umodsi3)
c:/program files (x86)/microchip/xc16/v1.36/bin/bin/../../lib\libm-elf.a(floatdisf.daeo)
                              c:/program files (x86)/microchip/xc16/v1.36/bin/bin/../../lib\libm-elf.a(floatsisf.daeo) (___floatdisf)
c:/program files (x86)/microchip/xc16/v1.36/bin/bin/../../lib\libm-elf.a(floatundisf.daeo)
                              c:/program files (x86)/microchip/xc16/v1.36/bin/bin/../../lib\libm-elf.a(floatdisf.daeo) (___floatundisf)
c:/program files (x86)/microchip/xc16/v1.36/bin/bin/../../lib\libm-elf.a(funpack.daeo)
                              c:/program files (x86)/microchip/xc16/v1.36/bin/bin/../../lib\libm-elf.a(funpack2.daeo) (__funpack)
c:/program files (x86)/microchip/xc16/v1.36/bin/bin/../../lib\liblega-c-elf.a(memcpy.DA_eo)
                              build/default/production/001_Tick_10ms.o (_memcpy)
c:/program files (x86)/microchip/xc16/v1.36/bin/bin/../../lib\liblega-c-elf.a(memset.DA_eo)
                              build/default/production/000_Main.o (_memset)
c:/program files (x86)/microchip/xc16/v1.36/bin/bin/../../lib\liblega-c-elf.a(putchar.DA_eo)
                              build/default/production/001_Tick_10ms.o (_putchar)
c:/program files (x86)/microchip/xc16/v1.36/bin/bin/../../lib\liblega-c-elf.a(puts.DA_eo)
                              build/default/production/000_Main.o (_puts)
c:/program files (x86)/microchip/xc16/v1.36/bin/bin/../../lib\liblega-c-elf.a(strcat.DA_eo)
                              build/default/production/003_BG96.o (_strcat)
c:/program files (x86)/microchip/xc16/v1.36/bin/bin/../../lib\liblega-c-elf.a(strchr.DA_eo)
                              build/default/production/003_BG96.o (_strchr)
c:/program files (x86)/microchip/xc16/v1.36/bin/bin/../../lib\liblega-c-elf.a(strcmp.DA_eo)
                              build/default/production/003_BG96.o (_strcmp)
c:/program files (x86)/microchip/xc16/v1.36/bin/bin/../../lib\liblega-c-elf.a(strcpy.DA_eo)
                              build/default/production/003_BG96.o (_strcpy)
c:/program files (x86)/microchip/xc16/v1.36/bin/bin/../../lib\liblega-c-elf.a(strlen.DA_eo)
                              build/default/production/003_BG96.o (_strlen)
c:/program files (x86)/microchip/xc16/v1.36/bin/bin/../../lib\liblega-c-elf.a(strncmp.DA_eo)
                              build/default/production/001_Tick_10ms.o (_strncmp)
c:/program files (x86)/microchip/xc16/v1.36/bin/bin/../../lib\liblega-c-elf.a(strncpy.DA_eo)
                              build/default/production/013_Protocol.o (_strncpy)
c:/program files (x86)/microchip/xc16/v1.36/bin/bin/../../lib\liblega-c-elf.a(strrchr.DA_eo)
                              build/default/production/003_BG96.o (_strrchr)
c:/program files (x86)/microchip/xc16/v1.36/bin/bin/../../lib\liblega-c-elf.a(strstr.DA_eo)
                              build/default/production/001_Tick_10ms.o (_strstr)
c:/program files (x86)/microchip/xc16/v1.36/bin/bin/../../lib\liblega-c-elf.a(strtok.DA_eo)
                              build/default/production/003_BG96.o (_strtok)
c:/program files (x86)/microchip/xc16/v1.36/bin/bin/../../lib\liblega-c-elf.a(xfiles.DA_eo)
                              c:/program files (x86)/microchip/xc16/v1.36/bin/bin/../../lib\liblega-c-elf.a(putchar.DA_eo) (__Stdout)
c:/program files (x86)/microchip/xc16/v1.36/bin/bin/../../lib\liblega-c-elf.a(xstoul.DA_eo)
                              build/default/production/003_BG96.o (__Stoul)
c:/program files (x86)/microchip/xc16/v1.36/bin/bin/../../lib\liblega-c-elf.a(vsprintf.DA_eo)
                              build/default/production/007_Uart.o (_vsprintf)
c:/program files (x86)/microchip/xc16/v1.36/bin/bin/../../lib\liblega-c-elf.a(xprintf.DA_eo)
                              c:/program files (x86)/microchip/xc16/v1.36/bin/bin/../../lib\liblega-c-elf.a(vsprintf.DA_eo) (__Printf)
c:/program files (x86)/microchip/xc16/v1.36/bin/bin/../../lib\liblega-c-elf.a(xputfld.DA_eo)
                              c:/program files (x86)/microchip/xc16/v1.36/bin/bin/../../lib\liblega-c-elf.a(xprintf.DA_eo) (__Putfld)
c:/program files (x86)/microchip/xc16/v1.36/bin/bin/../../lib\liblega-c-elf.a(isspace.DA_elso)
                              c:/program files (x86)/microchip/xc16/v1.36/bin/bin/../../lib\liblega-c-elf.a(xstoul.DA_eo) (_isspace)
c:/program files (x86)/microchip/xc16/v1.36/bin/bin/../../lib\liblega-c-elf.a(tolower.DA_elso)
                              c:/program files (x86)/microchip/xc16/v1.36/bin/bin/../../lib\liblega-c-elf.a(xstoul.DA_eo) (_tolower)
c:/program files (x86)/microchip/xc16/v1.36/bin/bin/../../lib\liblega-c-elf.a(errno.DA_elo)
                              c:/program files (x86)/microchip/xc16/v1.36/bin/bin/../../lib\liblega-c-elf.a(xstoul.DA_eo) (_errno)
c:/program files (x86)/microchip/xc16/v1.36/bin/bin/../../lib\liblega-c-elf.a(xvacopy.DA_elo)
                              c:/program files (x86)/microchip/xc16/v1.36/bin/bin/../../lib\liblega-c-elf.a(xprintf.DA_eo) (__Vacopy)
c:/program files (x86)/microchip/xc16/v1.36/bin/bin/../../lib\liblega-c-elf.a(printf_cdnopuxX.DAeo)
                              build/default/production/002_CLRC663.o (__printf_cdnopuxX)
c:/program files (x86)/microchip/xc16/v1.36/bin/bin/../../lib\liblega-c-elf.a(sprintf_cdnopuxX.DAeo)
                              build/default/production/003_BG96.o (__sprintf_cdnopuxX)
c:/program files (x86)/microchip/xc16/v1.36/bin/bin/../../lib\liblega-c-elf.a(xprintf_cdnopuxX.DAeo)
                              c:/program files (x86)/microchip/xc16/v1.36/bin/bin/../../lib\liblega-c-elf.a(printf_cdnopuxX.DAeo) (___Printf_cdnopuxX)
c:/program files (x86)/microchip/xc16/v1.36/bin/bin/../../lib\liblega-c-elf.a(xputfld_cdnopuxX.DAeo)
                              c:/program files (x86)/microchip/xc16/v1.36/bin/bin/../../lib\liblega-c-elf.a(xprintf_cdnopuxX.DAeo) (___Putfld_cdnopuxX)
c:/program files (x86)/microchip/xc16/v1.36/bin/bin/../../lib\liblega-c-elf.a(printf_cdfFnopsuxX.DAeo)
                              build/default/production/005_BNO055.o (__printf_cdfFnopsuxX)
c:/program files (x86)/microchip/xc16/v1.36/bin/bin/../../lib\liblega-c-elf.a(xprintf_cdfFnopsuxX.DAeo)
                              c:/program files (x86)/microchip/xc16/v1.36/bin/bin/../../lib\liblega-c-elf.a(printf_cdfFnopsuxX.DAeo) (___Printf_cdfFnopsuxX)
c:/program files (x86)/microchip/xc16/v1.36/bin/bin/../../lib\liblega-c-elf.a(xputfld_cdfFnopsuxX.DAeo)
                              c:/program files (x86)/microchip/xc16/v1.36/bin/bin/../../lib\liblega-c-elf.a(xprintf_cdfFnopsuxX.DAeo) (___Putfld_cdfFnopsuxX)
c:/program files (x86)/microchip/xc16/v1.36/bin/bin/../../lib\liblega-c-elf.a(xldtob_cdfFnopsuxX.DAeo)
                              c:/program files (x86)/microchip/xc16/v1.36/bin/bin/../../lib\liblega-c-elf.a(xputfld_cdfFnopsuxX.DAeo) (___Ldtob_cdfFnopsuxX)
c:/program files (x86)/microchip/xc16/v1.36/bin/bin/../../lib\liblega-c-elf.a(xgenld_cdfFnopsuxX.DAeo)
                              c:/program files (x86)/microchip/xc16/v1.36/bin/bin/../../lib\liblega-c-elf.a(xldtob_cdfFnopsuxX.DAeo) (___Genld_cdfFnopsuxX)
c:/program files (x86)/microchip/xc16/v1.36/bin/bin/../../lib\liblega-c-elf.a(printf_cdnopsuxX.DAeo)
                              build/default/production/000_Main.o (__printf_cdnopsuxX)
c:/program files (x86)/microchip/xc16/v1.36/bin/bin/../../lib\liblega-c-elf.a(sprintf_cdnopsuxX.DAeo)
                              build/default/production/003_BG96.o (__sprintf_cdnopsuxX)
c:/program files (x86)/microchip/xc16/v1.36/bin/bin/../../lib\liblega-c-elf.a(xprintf_cdnopsuxX.DAeo)
                              c:/program files (x86)/microchip/xc16/v1.36/bin/bin/../../lib\liblega-c-elf.a(printf_cdnopsuxX.DAeo) (___Printf_cdnopsuxX)
c:/program files (x86)/microchip/xc16/v1.36/bin/bin/../../lib\liblega-c-elf.a(xputfld_cdnopsuxX.DAeo)
                              c:/program files (x86)/microchip/xc16/v1.36/bin/bin/../../lib\liblega-c-elf.a(xprintf_cdnopsuxX.DAeo) (___Putfld_cdnopsuxX)
c:/program files (x86)/microchip/xc16/v1.36/bin/bin/../../lib\liblega-c-elf.a(printf_s.DAeo)
                              build/default/production/003_BG96.o (__printf_s)
c:/program files (x86)/microchip/xc16/v1.36/bin/bin/../../lib\liblega-c-elf.a(xprintf_s.DAeo)
                              c:/program files (x86)/microchip/xc16/v1.36/bin/bin/../../lib\liblega-c-elf.a(printf_s.DAeo) (___Printf_s)
c:/program files (x86)/microchip/xc16/v1.36/bin/bin/../../lib\liblega-c-elf.a(xputfld_s.DAeo)
                              c:/program files (x86)/microchip/xc16/v1.36/bin/bin/../../lib\liblega-c-elf.a(xprintf_s.DAeo) (___Putfld_s)
c:/program files (x86)/microchip/xc16/v1.36/bin/bin/../../lib\liblega-c-elf.a(div.DA_eo)
                              c:/program files (x86)/microchip/xc16/v1.36/bin/bin/../../lib\liblega-c-elf.a(xgenld_cdfFnopsuxX.DAeo) (_div)
c:/program files (x86)/microchip/xc16/v1.36/bin/bin/../../lib\liblega-c-elf.a(fputs.DA_eo)
                              c:/program files (x86)/microchip/xc16/v1.36/bin/bin/../../lib\liblega-c-elf.a(puts.DA_eo) (_fputs)
c:/program files (x86)/microchip/xc16/v1.36/bin/bin/../../lib\liblega-c-elf.a(fwrite.DA_eo)
                              c:/program files (x86)/microchip/xc16/v1.36/bin/bin/../../lib\liblega-c-elf.a(printf_cdnopuxX.DAeo) (_fwrite)
c:/program files (x86)/microchip/xc16/v1.36/bin/bin/../../lib\liblega-c-elf.a(ldiv.DA_eo)
                              c:/program files (x86)/microchip/xc16/v1.36/bin/bin/../../lib\liblega-c-elf.a(xldtob_cdfFnopsuxX.DAeo) (_ldiv)
c:/program files (x86)/microchip/xc16/v1.36/bin/bin/../../lib\liblega-c-elf.a(memchr.DA_eo)
                              c:/program files (x86)/microchip/xc16/v1.36/bin/bin/../../lib\liblega-c-elf.a(xstoul.DA_eo) (_memchr)
c:/program files (x86)/microchip/xc16/v1.36/bin/bin/../../lib\liblega-c-elf.a(strcspn.DA_eo)
                              c:/program files (x86)/microchip/xc16/v1.36/bin/bin/../../lib\liblega-c-elf.a(strtok.DA_eo) (_strcspn)
c:/program files (x86)/microchip/xc16/v1.36/bin/bin/../../lib\liblega-c-elf.a(strspn.DA_eo)
                              c:/program files (x86)/microchip/xc16/v1.36/bin/bin/../../lib\liblega-c-elf.a(strtok.DA_eo) (_strspn)
c:/program files (x86)/microchip/xc16/v1.36/bin/bin/../../lib\liblega-c-elf.a(xfwprep.DA_eo)
                              c:/program files (x86)/microchip/xc16/v1.36/bin/bin/../../lib\liblega-c-elf.a(fputs.DA_eo) (__Fwprep)
c:/program files (x86)/microchip/xc16/v1.36/bin/bin/../../lib\liblega-c-elf.a(xldtob.DA_eo)
                              c:/program files (x86)/microchip/xc16/v1.36/bin/bin/../../lib\liblega-c-elf.a(xputfld.DA_eo) (__Ldtob)
c:/program files (x86)/microchip/xc16/v1.36/bin/bin/../../lib\liblega-c-elf.a(xldunsca.DA_eo)
                              c:/program files (x86)/microchip/xc16/v1.36/bin/bin/../../lib\liblega-c-elf.a(xldtob_cdfFnopsuxX.DAeo) (__LDunscale)
c:/program files (x86)/microchip/xc16/v1.36/bin/bin/../../lib\liblega-c-elf.a(xlitob.DA_eo)
                              c:/program files (x86)/microchip/xc16/v1.36/bin/bin/../../lib\liblega-c-elf.a(xputfld.DA_eo) (__Litob)
c:/program files (x86)/microchip/xc16/v1.36/bin/bin/../../lib\liblega-c-elf.a(xputtxt.DA_eo)
                              c:/program files (x86)/microchip/xc16/v1.36/bin/bin/../../lib\liblega-c-elf.a(xprintf.DA_eo) (__Puttxt)
c:/program files (x86)/microchip/xc16/v1.36/bin/bin/../../lib\liblega-c-elf.a(fclose.DA_elo)
                              c:/program files (x86)/microchip/xc16/v1.36/bin/bin/../../lib\liblega-c-elf.a(xfwprep.DA_eo) (__Closreg)
c:/program files (x86)/microchip/xc16/v1.36/bin/bin/../../lib\liblega-c-elf.a(fflush.DA_elo)
                              c:/program files (x86)/microchip/xc16/v1.36/bin/bin/../../lib\liblega-c-elf.a(fputs.DA_eo) (__DNKfflush)
c:/program files (x86)/microchip/xc16/v1.36/bin/bin/../../lib\liblega-c-elf.a(xatexit.DA_elo)
                              c:/program files (x86)/microchip/xc16/v1.36/bin/bin/../../lib\liblega-c-elf.a(fclose.DA_elo) (__Atexit)
c:/program files (x86)/microchip/xc16/v1.36/bin/bin/../../lib\liblega-c-elf.a(xdnorm.DA_elo)
                              c:/program files (x86)/microchip/xc16/v1.36/bin/bin/../../lib\liblega-c-elf.a(xldunsca.DA_eo) (__Dnorm)
c:/program files (x86)/microchip/xc16/v1.36/bin/bin/../../lib\liblega-c-elf.a(xldscale.DA_elo)
                              c:/program files (x86)/microchip/xc16/v1.36/bin/bin/../../lib\liblega-c-elf.a(xldtob.DA_eo) (__LDscale)
c:/program files (x86)/microchip/xc16/v1.36/bin/bin/../../lib\liblega-c-elf.a(free.DA_eo)
                              c:/program files (x86)/microchip/xc16/v1.36/bin/bin/../../lib\liblega-c-elf.a(fclose.DA_elo) (_free)
c:/program files (x86)/microchip/xc16/v1.36/bin/bin/../../lib\liblega-c-elf.a(malloc.DA_eo)
                              c:/program files (x86)/microchip/xc16/v1.36/bin/bin/../../lib\liblega-c-elf.a(free.DA_eo) (__Aldata)
c:/program files (x86)/microchip/xc16/v1.36/bin/bin/../../lib\liblega-c-elf.a(xgenld.DA_eo)
                              c:/program files (x86)/microchip/xc16/v1.36/bin/bin/../../lib\liblega-c-elf.a(xldtob.DA_eo) (__Genld)
c:/program files (x86)/microchip/xc16/v1.36/bin/bin/../../lib\liblega-c-elf.a(xgetmem.DA_eo)
                              c:/program files (x86)/microchip/xc16/v1.36/bin/bin/../../lib\liblega-c-elf.a(malloc.DA_eo) (__Getmem)
c:/program files (x86)/microchip/xc16/v1.36/bin/bin/../../lib\liblega-pic30-elf.a(closeda.Leo)
                              c:/program files (x86)/microchip/xc16/v1.36/bin/bin/../../lib\liblega-c-elf.a(fclose.DA_elo) (_close)
c:/program files (x86)/microchip/xc16/v1.36/bin/bin/../../lib\liblega-pic30-elf.a(writeda.Leo)
                              c:/program files (x86)/microchip/xc16/v1.36/bin/bin/../../lib\liblega-c-elf.a(fflush.DA_elo) (_write)
c:/program files (x86)/microchip/xc16/v1.36/bin/bin/../../lib\liblega-pic30-elf.a(removeda.Leo)
                              c:/program files (x86)/microchip/xc16/v1.36/bin/bin/../../lib\liblega-c-elf.a(fclose.DA_elo) (_remove)
c:/program files (x86)/microchip/xc16/v1.36/bin/bin/../../lib\liblega-pic30-elf.a(sbrkda.Leo)
                              c:/program files (x86)/microchip/xc16/v1.36/bin/bin/../../lib\liblega-c-elf.a(xgetmem.DA_eo) (_sbrk)
c:/program files (x86)/microchip/xc16/v1.36/bin/bin/../../lib\liblega-pic30-elf.a(c30_uartda.Leo)
                              c:/program files (x86)/microchip/xc16/v1.36/bin/bin/../../lib\liblega-pic30-elf.a(writeda.Leo) (___C30_UART)
c:/program files (x86)/microchip/xc16/v1.36/bin/bin/../../lib\liblega-pic30-elf.a(brkda.Lelo)
                              c:/program files (x86)/microchip/xc16/v1.36/bin/bin/../../lib\liblega-pic30-elf.a(sbrkda.Leo) (_brk)
c:/program files (x86)/microchip/xc16/v1.36/bin/bin/../../lib\libm-elf.a(deqltle.daeo)
                              c:/program files (x86)/microchip/xc16/v1.36/bin/bin/../../lib\liblega-c-elf.a(xldtob_cdfFnopsuxX.DAeo) (___ltdf2)
c:/program files (x86)/microchip/xc16/v1.36/bin/bin/../../lib\libm-elf.a(dgtge.daeo)
                              c:/program files (x86)/microchip/xc16/v1.36/bin/bin/../../lib\liblega-c-elf.a(xldtob_cdfFnopsuxX.DAeo) (___gtdf2)
c:/program files (x86)/microchip/xc16/v1.36/bin/bin/../../lib\libm-elf.a(divdf3.daeo)
                              c:/program files (x86)/microchip/xc16/v1.36/bin/bin/../../lib\liblega-c-elf.a(xldtob_cdfFnopsuxX.DAeo) (___divdf3)
c:/program files (x86)/microchip/xc16/v1.36/bin/bin/../../lib\libm-elf.a(divsi3.daeo)
                              c:/program files (x86)/microchip/xc16/v1.36/bin/bin/../../lib\liblega-c-elf.a(xldtob_cdfFnopsuxX.DAeo) (___divsi3)
c:/program files (x86)/microchip/xc16/v1.36/bin/bin/../../lib\libm-elf.a(dpack.daeo)
                              c:/program files (x86)/microchip/xc16/v1.36/bin/bin/../../lib\libm-elf.a(divdf3.daeo) (__dpack)
c:/program files (x86)/microchip/xc16/v1.36/bin/bin/../../lib\libm-elf.a(dunpack2.daeo)
                              c:/program files (x86)/microchip/xc16/v1.36/bin/bin/../../lib\libm-elf.a(divdf3.daeo) (__dunpack2)
c:/program files (x86)/microchip/xc16/v1.36/bin/bin/../../lib\libm-elf.a(extendsfdf.daeo)
                              c:/program files (x86)/microchip/xc16/v1.36/bin/bin/../../lib\liblega-c-elf.a(xputfld.DA_eo) (___extendsfdf2)
c:/program files (x86)/microchip/xc16/v1.36/bin/bin/../../lib\libm-elf.a(fixdfsi.daeo)
                              c:/program files (x86)/microchip/xc16/v1.36/bin/bin/../../lib\liblega-c-elf.a(xldtob_cdfFnopsuxX.DAeo) (_(float, int, long long, double, float, short, int))
c:/program files (x86)/microchip/xc16/v1.36/bin/bin/../../lib\libm-elf.a(floatsidf.daeo)
                              c:/program files (x86)/microchip/xc16/v1.36/bin/bin/../../lib\liblega-c-elf.a(xldtob_cdfFnopsuxX.DAeo) (___floatsidf)
c:/program files (x86)/microchip/xc16/v1.36/bin/bin/../../lib\libm-elf.a(muldf3.daeo)
                              c:/program files (x86)/microchip/xc16/v1.36/bin/bin/../../lib\liblega-c-elf.a(xldtob_cdfFnopsuxX.DAeo) (___muldf3)
c:/program files (x86)/microchip/xc16/v1.36/bin/bin/../../lib\libm-elf.a(subdf3.daeo)
                              c:/program files (x86)/microchip/xc16/v1.36/bin/bin/../../lib\liblega-c-elf.a(xldtob_cdfFnopsuxX.DAeo) (___subdf3)
c:/program files (x86)/microchip/xc16/v1.36/bin/bin/../../lib\libm-elf.a(mulsi3.daeo)
                              c:/program files (x86)/microchip/xc16/v1.36/bin/bin/../../lib\liblega-c-elf.a(xstoul.DA_eo) (___mulsi3)
c:/program files (x86)/microchip/xc16/v1.36/bin/bin/../../lib\libm-elf.a(divmoddi3.daeo)
                              c:/program files (x86)/microchip/xc16/v1.36/bin/bin/../../lib\liblega-c-elf.a(xlitob.DA_eo) (___udivdi3)
c:/program files (x86)/microchip/xc16/v1.36/bin/bin/../../lib\libm-elf.a(adddf3.daeo)
                              c:/program files (x86)/microchip/xc16/v1.36/bin/bin/../../lib\libm-elf.a(subdf3.daeo) (___adddf3)
c:/program files (x86)/microchip/xc16/v1.36/bin/bin/../../lib\libm-elf.a(dcompare.daeo)
                              c:/program files (x86)/microchip/xc16/v1.36/bin/bin/../../lib\libm-elf.a(deqltle.daeo) (__dcompare)
c:/program files (x86)/microchip/xc16/v1.36/bin/bin/../../lib\libm-elf.a(dpropagateNaN.daeo)
                              c:/program files (x86)/microchip/xc16/v1.36/bin/bin/../../lib\libm-elf.a(dunpack2.daeo) (__dPropagateNaN)
c:/program files (x86)/microchip/xc16/v1.36/bin/bin/../../lib\libm-elf.a(dtype.daeo)
                              c:/program files (x86)/microchip/xc16/v1.36/bin/bin/../../lib\libm-elf.a(dcompare.daeo) (__dtype)
c:/program files (x86)/microchip/xc16/v1.36/bin/bin/../../lib\libm-elf.a(dunpack.daeo)
                              c:/program files (x86)/microchip/xc16/v1.36/bin/bin/../../lib\libm-elf.a(dunpack2.daeo) (__dunpack)
c:/program files (x86)/microchip/xc16/v1.36/bin/bin/../../lib\libm-elf.a(floatdidf.daeo)
                              c:/program files (x86)/microchip/xc16/v1.36/bin/bin/../../lib\libm-elf.a(floatsidf.daeo) (___floatdidf)
c:/program files (x86)/microchip/xc16/v1.36/bin/bin/../../lib\libm-elf.a(floatundidf.daeo)
                              c:/program files (x86)/microchip/xc16/v1.36/bin/bin/../../lib\libm-elf.a(floatdidf.daeo) (___floatundidf)


Selected CodeGuard Options:
  FSEC:BWRP:OFF
  FSEC:BSS:DISABLED
  FSEC:BSEN:OFF
  FSEC:GWRP:OFF
  FSEC:GSS:DISABLED
  FSEC:CWRP:OFF
  FSEC:CSS:DISABLED
  FSEC:AIVTDIS:OFF

CodeGuard FLASH Memory:
  boot    (none)
  secure  (none)
  general 0x100 to 0xabefe

CodeGuard RAM Memory:
  general 0x800 to 0x87ff
  secure  (none)
  boot    (none)


xc16-ld 1.36 (B)

"program" Memory  [Origin = 0x100, Length = 0xabe00]

section                    address   length (PC units)   length (bytes) (dec)
-------                    -------   -----------------   --------------------
.text                        0x100              0x3082          0x48c3  (18627)
.const                      0x3182              0x2254          0x337e  (13182)
.text                       0x53d6              0x77c0          0xb3a0  (45984)
.dinit                      0xcb96               0x2b8           0x414  (1044)
.text                       0xce4e               0x94a           0xdef  (3567)

                 Total "program" memory used (bytes):        0x141e4  (82404) 7%


"data" Memory  [Origin = 0x800, Length = 0x8000]

section                    address      alignment gaps    total length  (dec)
-------                    -------      --------------    -------------------
.nbss                        0x800                   0            0x2a  (42)
MobitVAR                     0x82a                   0             0x2  (2)
.ndata                       0x82c                   0             0x2  (2)
.nbss                        0x82e                   0             0x4  (4)
.ndata                       0x832                   0             0x2  (2)
.bss                         0x834                   0          0x1190  (4496)
.data                       0x19c4                   0           0x1e4  (484)
.bss                        0x1ba8                   0            0x40  (64)
.data                       0x1be8                   0            0xd8  (216)
.bss                        0x1cc0                   0             0x8  (8)
.data                       0x1cc8                   0             0x2  (2)
.bss                        0x1cca                   0             0x2  (2)
.data                       0x1ccc                   0             0x6  (6)
.bss                        0x1cd2                   0             0x2  (2)

                 Total "data" memory used (bytes):         0x14d4  (5332) 16%


Dynamic Memory Usage

region                     address                      maximum length  (dec)
------                     -------                      ---------------------
heap                             0                                   0  (0)
stack                       0x1cd4                              0x632c  (25388)

                 Maximum dynamic memory (bytes):         0x632c  (25388)


External Symbols in Data Memory (by address):

                    0x0800                  _MobitTimes
                    0x0804                  _Timer2Cnt
                    0x0814                  _g_need_ack
                    0x0816                  _g_door_state
                    0x0817                  _g_drlock_sta_chged
                    0x0818                  _g_dropen_sta_chged
                    0x0819                  _g_hbrake_sta_chged
                    0x081a                  _g_gps_trace_gap
                    0x081c                  _g_iap_update
                    0x081e                  _NonVolatileDATA
                    0x0822                  _is_mode_nb
                    0x0824                  _is_tcp_closed
                    0x0826                  _rx_debug_flag
                    0x0828                  _bufferHead
                    0x082a                  _Mobit
                    0x082c                  _errorCode
                    0x082e                  _Uart3_Read_Postion
                    0x0830                  _Uart3_Use_Len
                    0x0832                  _g_hbeat_gap
                    0x0834                  _tmp_rbuf
                    0x083e                  _at_rbuf
                    0x0848                  _net_rbuf
                    0x0852                  _rxBuffer
                    0x0a52                  _atRingbuf
                    0x0c52                  _netRingbuf
                    0x0e52                  _tmpRingbuf
                    0x1052                  _g_server_time
                    0x1073                  _g_msg_md5
                    0x1094                  _g_card_ids
                    0x11de                  _g_net_ip
                    0x11ff                  _g_net_port
                    0x1220                  _g_net_apn
                    0x1241                  _g_iap_update_md5
                    0x1262                  _g_iap_update_url
                    0x12e3                  _g_CHANGE_APN_name
                    0x1364                  _Uart2_Send_Buf
                    0x1564                  _Uart3_Buffer
                    0x15a4                  _one_svr_cmds
                    0x17a4                  _g_first_md5
                    0x17c4                  _tmpuse_buf
                    0x19c4                  __Stdin
                    0x19ec                  __Stdout
                    0x1a14                  __Stderr
                    0x1a3c                  __Files
                    0x1b68                  _g_bg96_imei
                    0x1b88                  _g_bg96_iccid
                    0x1ba8                  _send_buf
                    0x1be8                  _PADDING
                    0x1c28                  _cmd_list
                    0x1cc0                  _errno
                    0x1cc2                  __Tls_setup_errno
                    0x1cc4                  __Aldata
                    0x1ccc                  __Size_block
                    0x1cd0                  ___C30_UART
                    0x1cd2                  ___curbrk

External Symbols in Data Memory (by name):

                    0x082a                  _Mobit
                    0x0800                  _MobitTimes
                    0x081e                  _NonVolatileDATA
                    0x1be8                  _PADDING
                    0x0804                  _Timer2Cnt
                    0x1364                  _Uart2_Send_Buf
                    0x1564                  _Uart3_Buffer
                    0x082e                  _Uart3_Read_Postion
                    0x0830                  _Uart3_Use_Len
                    0x1cc4                  __Aldata
                    0x1a3c                  __Files
                    0x1ccc                  __Size_block
                    0x1a14                  __Stderr
                    0x19c4                  __Stdin
                    0x19ec                  __Stdout
                    0x1cc2                  __Tls_setup_errno
                    0x1cd0                  ___C30_UART
                    0x1cd2                  ___curbrk
                    0x0a52                  _atRingbuf
                    0x083e                  _at_rbuf
                    0x0828                  _bufferHead
                    0x1c28                  _cmd_list
                    0x1cc0                  _errno
                    0x082c                  _errorCode
                    0x12e3                  _g_CHANGE_APN_name
                    0x1b88                  _g_bg96_iccid
                    0x1b68                  _g_bg96_imei
                    0x1094                  _g_card_ids
                    0x0816                  _g_door_state
                    0x0817                  _g_drlock_sta_chged
                    0x0818                  _g_dropen_sta_chged
                    0x17a4                  _g_first_md5
                    0x081a                  _g_gps_trace_gap
                    0x0832                  _g_hbeat_gap
                    0x0819                  _g_hbrake_sta_chged
                    0x081c                  _g_iap_update
                    0x1241                  _g_iap_update_md5
                    0x1262                  _g_iap_update_url
                    0x1073                  _g_msg_md5
                    0x0814                  _g_need_ack
                    0x1220                  _g_net_apn
                    0x11de                  _g_net_ip
                    0x11ff                  _g_net_port
                    0x1052                  _g_server_time
                    0x0822                  _is_mode_nb
                    0x0824                  _is_tcp_closed
                    0x0c52                  _netRingbuf
                    0x0848                  _net_rbuf
                    0x15a4                  _one_svr_cmds
                    0x0852                  _rxBuffer
                    0x0826                  _rx_debug_flag
                    0x1ba8                  _send_buf
                    0x0e52                  _tmpRingbuf
                    0x0834                  _tmp_rbuf
                    0x17c4                  _tmpuse_buf

External Symbols in Program Memory (by address):

                  0x000100                  __resetPRI
                  0x00013c                  __psv_init
                  0x000152                  __data_init_da
                  0x000152                  __data_init
                  0x000218                  __T1Interrupt
                  0x000246                  __T2Interrupt
                  0x0005bc                  __U2RXInterrupt
                  0x0005fa                  __U1RXInterrupt
                  0x000620                  __U3RXInterrupt
                  0x000658                  __DefaultInterrupt
                  0x000748                  ___divsf3
                  0x0007cc                  ___floatsisf
                  0x0007d2                  __fpack
                  0x00081e                  __funpack2
                  0x00082e                  __fPropagateNaN
                  0x000840                  __fbopExit
                  0x000848                  __fbopReturnNaN
                  0x00084e                  ___udivsi3
                  0x00086e                  ___umodsi3
                  0x000874                  ___floatdisf
                  0x000894                  ___floatundisf
                  0x0008f2                  __funpack
                  0x00091c                  _memcpy
                  0x00092a                  _memset
                  0x000938                  _putchar
                  0x00093c                  _puts
                  0x000952                  _strcat
                  0x000966                  _strchr
                  0x00097e                  _strcmp
                  0x00099e                  _strcpy
                  0x0009aa                  _strlen
                  0x0009b6                  _strncmp
                  0x0009de                  _strncpy
                  0x0009fc                  _strrchr
                  0x000a10                  _strstr
                  0x000a3a                  _strtok
                  0x000a6e                  __Stoul
                  0x000ba6                  vsprintf.DA_eo:_prout
                  0x000bb4                  _vsprintf
                  0x000bce                  __Printf
                  0x000d32                  __Putfld
                  0x00100c                  _isspace
                  0x00101c                  _tolower
                  0x00102a                  __Geterrno
                  0x001036                  __Vacopy
                  0x00103a                  printf_cdfFnopsuxX.DAeo:_prout
                  0x001056                  __printf_cdnopuxX
                  0x001056                  __printf_0
                  0x001056                  __printf_cdfFnopsuxX
                  0x001056                  __printf_s
                  0x001056                  __printf_cdnopsuxX
                  0x001066                  ___Printf_cdfFnopsuxX
                  0x001066                  ___Printf_cdnopuxX
                  0x001066                  ___Printf_cdnopsuxX
                  0x001066                  ___Printf_s
                  0x0011ca                  ___Putfld_cdfFnopsuxX
                  0x0011ca                  ___Putfld_cdnopsuxX
                  0x0011ca                  ___Putfld_s
                  0x0011ca                  ___Putfld_cdnopuxX
                  0x0014a4                  ___Ldtob_cdfFnopsuxX
                  0x0016f4                  ___Genld_cdfFnopsuxX
                  0x0018fc                  sprintf_cdnopsuxX.DAeo:_prout
                  0x00190a                  __sprintf_cdnopuxX
                  0x00190a                  __sprintf_cdnopsuxX
                  0x001928                  _div
                  0x00193e                  _fputs
                  0x0019ce                  _fwrite
                  0x001a76                  _ldiv
                  0x001aa0                  _memchr
                  0x001ab4                  _strcspn
                  0x001ad6                  _strspn
                  0x001af6                  __Fwprep
                  0x001b84                  __Ldtob
                  0x001f76                  __LDunscale
                  0x001fca                  __Litob
                  0x002228                  __Puttxt
                  0x0023a4                  __Closreg
                  0x0023b6                  _fclose
                  0x002446                  fclose.DA_elo:_closeall
                  0x002466                  __DNKfflush
                  0x0024da                  __Atexit
                  0x0024f2                  __Dnorm
                  0x00258a                  __LDscale
                  0x002680                  _free
                  0x00274a                  _malloc
                  0x00279e                  __Genld
                  0x002a02                  __Getmem
                  0x002a22                  ___ledf2
                  0x002a22                  ___eqdf2
                  0x002a22                  ___ltdf2
                  0x002a2c                  ___gedf2
                  0x002a2c                  ___gtdf2
                  0x002a36                  ___divdf3
                  0x002aea                  ___divsi3
                  0x002b08                  __dpack
                  0x002b60                  __dunpack2
                  0x002b82                  __dreturnNaN
                  0x002b88                  __dunpack2exit
                  0x002b92                  ___extendsfdf2
                  0x002bd0                  ___fixdfsi
                  0x002c28                  ___floatsidf
                  0x002c30                  ___muldf3
                  0x002d1c                  ___subdf3
                  0x002d20                  ___mulp32eds3
                  0x002d20                  ___mulsi3
                  0x002d20                  ___mulp32peds3
                  0x002d78                  ___udivmoddi3
                  0x002e5e                  ___udivdi3
                  0x002e6c                  ___umoddi3
                  0x002e74                  ___divdi3
                  0x002ed4                  ___moddi3
                  0x002f30                  ___adddf3
                  0x00302c                  __dcompare
                  0x00307e                  __dPropagateNaN
                  0x00309a                  __dtype
                  0x0030be                  __dunpack
                  0x00310c                  ___floatdidf
                  0x00312c                  ___floatundidf
                  0x0053d6                  _Configure_BG96
                  0x0053fa                  _SetPinDir
                  0x005404                  _SetPinVal
                  0x00540e                  _WriteToBG96
                  0x00542a                  _ReadByteFromRingBuffer
                  0x005450                  _ReadByteFromTmpRingBuffer
                  0x005476                  _ReadByteFromNetRingBuffer
                  0x00549c                  _IsRingBufferAvailable
                  0x0054aa                  _IsNetRingBufferAvailable
                  0x0054b8                  _IsTmpRingBufferAvailable
                  0x0054c6                  _WaitUartRxIdle
                  0x0054f6                  _WaitUartTmpRxIdle
                  0x005526                  _WaitUartNetRxIdle
                  0x005556                  _GetOneCompleteNetCmd
                  0x00555c                  _InitModule
                  0x0055d0                  _SetDevCommandEcho
                  0x0055fa                  _GetDevInformation
                  0x005626                  _GetDevVersion
                  0x005652                  _GetDevIMEI
                  0x005692                  _SetDevFunctionality
                  0x005700                  _DevLocalRate
                  0x0057cc                  _GetDevSimIMSI
                  0x0057f8                  _DevSimPIN
                  0x005864                  _GetDevSimICCID
                  0x0058ae                  _DevNetRegistrationStatus
                  0x005966                  _GetDevNetSignalQuality
                  0x0059a0                  _ScanOperatorNetwork
                  0x005a12                  _DevOperatorNetwork
                  0x005b50                  _GetDevNetworkInformation
                  0x005bf6                  _DevNetPacketCounter
                  0x005ca8                  _DevPowerDown
                  0x005cde                  _DevClock
                  0x005d7c                  _SetDevAPNParameters
                  0x005dee                  _ActivateDevAPN
                  0x005e34                  _DeactivateDevAPN
                  0x005e84                  _GetDevAPNIPAddress
                  0x005f00                  _InitAPN
                  0x005fea                  _OpenSocketService
                  0x006160                  _CloseSocketService
                  0x0061a8                  _SocketSendData
                  0x006254                  _SocketRecvData
                  0x0062ea                  _SocketSendHEXData
                  0x006346                  _SwitchAccessModes
                  0x0063b4                  _DevPingFunction
                  0x0064d8                  _DevNTPFunction
                  0x006566                  _ConfigDNSServer
                  0x0065c8                  _DevDNSFunction
                  0x006650                  _QueryLastErrorCode
                  0x00668c                  _WaitCheckSocketEvent
                  0x006706                  _InitSerial
                  0x00670e                  _SendDataAndCheck
                  0x00675a                  _SendATcommand
                  0x00679c                  _ReadResponseByteToBuffer
                  0x0067d2                  _ReadResponseToBuffer
                  0x00680a                  _ReadResponseAndSearchChr
                  0x00685a                  _ReadResponseAndSearch
                  0x0068b8                  _ReadResponseAndSearch_multi
                  0x0069ee                  _SendAndSearchChr
                  0x006a24                  _SendAndSearch
                  0x006a5a                  _SendAndSearch_multi
                  0x006a96                  _SearchStrBuffer
                  0x006ab6                  _SearchChrBuffer
                  0x006ae0                  _ReturnErrorCode
                  0x006b00                  _CleanBuffer
                  0x006b10                  _SetHTTPConfigParameters
                  0x006c1e                  _SetHTTPEnableSSL
                  0x006c5c                  _HTTPURL
                  0x006cfe                  _HTTPGET
                  0x006d88                  _HTTPPOST
                  0x006e2e                  _HTTTPPOSTFile
                  0x006ebe                  _HTTPRead
                  0x006f36                  _HTTPReadToFile
                  0x006fba                  _SetGNSSConstellation
                  0x006ff8                  _SetGNSSAutoRun
                  0x00704c                  _SetGNSSEnableNMEASentences
                  0x007090                  _TurnOnGNSS
                  0x007116                  _TurnOffGNSS
                  0x007138                  _GetGNSSPositionInformation
                  0x007186                  _GetGNSSNMEASentences
                  0x007238                  _GetFliesSpace
                  0x0072a4                  _GetFilesList
                  0x0072e0                  _DeleteFiles
                  0x00731e                  _UploadFiles
                  0x007374                  _DownloadFiles
                  0x0073ce                  _OpenFile
                  0x007432                  _ReadFile
                  0x007486                  _WriteFile
                  0x0074dc                  _CloseFlie
                  0x007516                  _SetFilePointer
                  0x007560                  _GetFilePointer
                  0x0075be                  _TruncateFile
                  0x0075f8                  _SetSSLParameters
                  0x0077de                  _SetSSLCertificate
                  0x007ae2                  _InitSSL
                  0x007d8a                  _OpenSSLSocket
                  0x007e4c                  _SSLSocketSendData
                  0x007e9c                  _SSLSocketRecvData
                  0x007ef8                  _CloseSSLSocket
                  0x007f32                  _QuerySSLSocketStatus
                  0x007f84                  _WaitCheckSSLSocketEvent
                  0x007fdc                  _SwithToGSM
                  0x007fe2                  _SwithToNB
                  0x007fe8                  _TcpClose
                  0x008004                  _QueryNetStatus
                  0x008026                  _BG96ATInit
                  0x008048                  _HeartBeat
                  0x008078                  _ConnectTcp
                  0x008112                  _ProcessEvent
                  0x008162                  _TcpClientDemo10s
                  0x0082ce                  _HttpClientDemo
                  0x008414                  _GNSSDemo
                  0x0084b2                  _GAgent_MD5Init
                  0x0084f0                  _GAgent_MD5Update
                  0x0085e2                  _GAgent_MD5Final
                  0x00864a                  _GAgent_MD5Encode
                  0x0086e8                  _GAgent_MD5Decode
                  0x0087da                  _GAgent_MD5Transform
                  0x00a580                  _clrc663_read_reg
                  0x00a5ac                  _clrc663_write_reg
                  0x00a5d2                  _clrc663_write_regs
                  0x00a664                  _clrc663_write_fifo
                  0x00a6b4                  _clrc663_read_fifo
                  0x00a702                  _clrc663_read_error
                  0x00a70c                  _clrc663_cmd_read_E2
                  0x00a738                  _clrc663_cmd_load_reg
                  0x00a76a                  _clrc663_cmd_load_protocol
                  0x00a78a                  _clrc663_cmd_transceive
                  0x00a7a4                  _clrc663_cmd_idle
                  0x00a7b0                  _clrc663_cmd_load_key_E2
                  0x00a7ca                  _clrc663_cmd_auth
                  0x00a80c                  _clrc663_cmd_load_key
                  0x00a824                  _clrc663_flush_fifo
                  0x00a830                  _clrc663_fifo_length
                  0x00a83c                  _clrc663_clear_irq0
                  0x00a848                  _clrc663_clear_irq1
                  0x00a854                  _clrc663_irq0
                  0x00a85e                  _clrc663_irq1
                  0x00a868                  _clrc663_transfer_E2_page
                  0x00a888                  _clrc663_print_block
                  0x00a8b4                  _clrc663_activate_timer
                  0x00a8da                  _clrc663_timer_set_control
                  0x00a8f2                  _clrc663_timer_set_reload
                  0x00a91e                  _clrc663_timer_set_value
                  0x00a94a                  _clrc663_timer_get_value
                  0x00a976                  _clrc663_AN11145_start_IQ_measurement
                  0x00a9f4                  _clrc663_AN11145_stop_IQ_measurement
                  0x00aa0c                  _clrc663_AN1102_recommended_registers_skip
                  0x00ab48                  _clrc663_AN1102_recommended_registers
                  0x00ab56                  _clrc663_AN1102_recommended_registers_no_transmitter
                  0x00ab64                  _CLRC663_configure_communication_protocol
                  0x00abf6                  _clrc663_iso14443a_REQA
                  0x00ac00                  _clrc663_iso14443a_WUPA
                  0x00ac0a                  _clrc663_iso14443a_WUPA_REQA
                  0x00acc4                  _clrc663_iso14443a_select
                  0x00b1e4                  _clrc663_communicate
                  0x00b2ae                  _clrc663_MF_auth
                  0x00b32c                  _clrc663_MF_read_block
                  0x00b3e4                  _clrc663_MF_write_block
                  0x00b514                  _clrc663_MF_deauth
                  0x00b520                  _clrc663_MF_example_dump
                  0x00b5d2                  _Uart3_Clear
                  0x00b5e4                  _Uart3_Getc
                  0x00b938                  _bno055_verify_chip
                  0x00b998                  _bno055_read_accel
                  0x00b9e8                  _bno055_read_gyro
                  0x00ba38                  _bno055_read_mag
                  0x00ba88                  _bno055_read_quat
                  0x00baea                  _bno055_read_eul
                  0x00bb3a                  _bno055_read_lia
                  0x00bb8a                  _bno055_read_grv
                  0x00bbda                  _bno055_read_calibrate_sta
                  0x00bc82                  _bno055_read_temp
                  0x00bc96                  _bno055_read_status
                  0x00bcee                  _bno055_set_axis_remap
                  0x00bd2e                  _bno055_set_axis_sign
                  0x00bd72                  _bno055_enter_suspend_mode
                  0x00bdc6                  _bno055_enter_normal_mode
                  0x00be1a                  _bno055_initial
                  0x00bf02                  _bno055_calibrate_demo
                  0x00bf46                  _bno055_set_ext_crystal
                  0x00bfc4                  _bno055_setup
                  0x00c004                  _bno055_demo
                  0x00c2e4                  _Configure_BNO055
                  0x00c304                  _calc_first_md5
                  0x00c364                  _get_mobit_cmd_count
                  0x00c382                  _is_supported_mobit_cmd
                  0x00c3ee                  _parse_mobit_msg
                  0x00c804                  _print_block
                  0x00c85c                  _print_block_01
                  0x00c8b8                  _print_card_ID_block
                  0x00c92e                  _check_valid_card
                  0x00c960                  _print_PUPI
                  0x00c978                  _print_serial_nr
                  0x00c990                  _bitRead
                  0x00c9ae                  _shift
                  0x00ca42                  _print_card_ID
                  0x00ca58                  _read_iso14443B_nfc_card
                  0x00ce4e                  _process_bg96
                  0x00cfd0                  _main
                  0x00d086                  _ringbuffer_init
                  0x00d0b0                  _ringbuffer_write
                  0x00d108                  _ringbuffer_write_byte
                  0x00d144                  _ringbuffer_read
                  0x00d1a2                  _ringbuffer_read_len
                  0x00d228                  _ringbuffer_clear
                  0x00d242                  _ringbuffer_buf_use_size
                  0x00d29c                  _ringbuffer_buf_free_size
                  0x00d2b2                  _Uart1_Init
                  0x00d2fc                  _Uart2_Init
                  0x00d346                  _Uart3_Init
                  0x00d390                  _fputc
                  0x00d3ae                  _Uart1_Putc
                  0x00d3ca                  _Uart2_Putc
                  0x00d3e6                  _Uart3_Putc
                  0x00d400                  _uart3_write_bytes
                  0x00d42a                  _Uart2_String
                  0x00d458                  _Uart2_Printf
                  0x00d496                  _clrc663_SPI_init
                  0x00d508                  _SPI2_Exchange
                  0x00d538                  _clrc663_SPI_write
                  0x00d548                  _SPI2_ExchangeBuffer
                  0x00d612                  _clrc663_SPI_transfer
                  0x00d626                  _clrc663_SPI_select
                  0x00d62e                  _clrc663_SPI_unselect
                  0x00d636                  _Configure_Tick_10ms
                  0x00d65e                  _Configure_Tick2_10ms
                  0x00d686                  _delay_ms
                  0x00d6a2                  _DelayMs
                  0x00d6be                  _GetTimeStamp
                  0x00d6c8                  _isDelayTimeout
                  0x00d73a                  _GPIOB_Init
                  0x00d756                  _GPIOB_SetPin
                  0x00d784                  _System_Config
                  0x00d792                  _Configure_LB1938
                  0x0abf00                  __FSEC.sec

External Symbols in Program Memory (by name):

                  0x005dee                  _ActivateDevAPN
                  0x008026                  _BG96ATInit
                  0x00ab64                  _CLRC663_configure_communication_protocol
                  0x006b00                  _CleanBuffer
                  0x0074dc                  _CloseFlie
                  0x007ef8                  _CloseSSLSocket
                  0x006160                  _CloseSocketService
                  0x006566                  _ConfigDNSServer
                  0x0053d6                  _Configure_BG96
                  0x00c2e4                  _Configure_BNO055
                  0x00d792                  _Configure_LB1938
                  0x00d65e                  _Configure_Tick2_10ms
                  0x00d636                  _Configure_Tick_10ms
                  0x008078                  _ConnectTcp
                  0x005e34                  _DeactivateDevAPN
                  0x00d6a2                  _DelayMs
                  0x0072e0                  _DeleteFiles
                  0x005cde                  _DevClock
                  0x0065c8                  _DevDNSFunction
                  0x005700                  _DevLocalRate
                  0x0064d8                  _DevNTPFunction
                  0x005bf6                  _DevNetPacketCounter
                  0x0058ae                  _DevNetRegistrationStatus
                  0x005a12                  _DevOperatorNetwork
                  0x0063b4                  _DevPingFunction
                  0x005ca8                  _DevPowerDown
                  0x0057f8                  _DevSimPIN
                  0x007374                  _DownloadFiles
                  0x0086e8                  _GAgent_MD5Decode
                  0x00864a                  _GAgent_MD5Encode
                  0x0085e2                  _GAgent_MD5Final
                  0x0084b2                  _GAgent_MD5Init
                  0x0087da                  _GAgent_MD5Transform
                  0x0084f0                  _GAgent_MD5Update
                  0x008414                  _GNSSDemo
                  0x00d73a                  _GPIOB_Init
                  0x00d756                  _GPIOB_SetPin
                  0x005e84                  _GetDevAPNIPAddress
                  0x005652                  _GetDevIMEI
                  0x0055fa                  _GetDevInformation
                  0x005966                  _GetDevNetSignalQuality
                  0x005b50                  _GetDevNetworkInformation
                  0x005864                  _GetDevSimICCID
                  0x0057cc                  _GetDevSimIMSI
                  0x005626                  _GetDevVersion
                  0x007560                  _GetFilePointer
                  0x0072a4                  _GetFilesList
                  0x007238                  _GetFliesSpace
                  0x007186                  _GetGNSSNMEASentences
                  0x007138                  _GetGNSSPositionInformation
                  0x005556                  _GetOneCompleteNetCmd
                  0x00d6be                  _GetTimeStamp
                  0x006cfe                  _HTTPGET
                  0x006d88                  _HTTPPOST
                  0x006ebe                  _HTTPRead
                  0x006f36                  _HTTPReadToFile
                  0x006c5c                  _HTTPURL
                  0x006e2e                  _HTTTPPOSTFile
                  0x008048                  _HeartBeat
                  0x0082ce                  _HttpClientDemo
                  0x005f00                  _InitAPN
                  0x00555c                  _InitModule
                  0x007ae2                  _InitSSL
                  0x006706                  _InitSerial
                  0x0054aa                  _IsNetRingBufferAvailable
                  0x00549c                  _IsRingBufferAvailable
                  0x0054b8                  _IsTmpRingBufferAvailable
                  0x0073ce                  _OpenFile
                  0x007d8a                  _OpenSSLSocket
                  0x005fea                  _OpenSocketService
                  0x008112                  _ProcessEvent
                  0x006650                  _QueryLastErrorCode
                  0x008004                  _QueryNetStatus
                  0x007f32                  _QuerySSLSocketStatus
                  0x005476                  _ReadByteFromNetRingBuffer
                  0x00542a                  _ReadByteFromRingBuffer
                  0x005450                  _ReadByteFromTmpRingBuffer
                  0x007432                  _ReadFile
                  0x00685a                  _ReadResponseAndSearch
                  0x00680a                  _ReadResponseAndSearchChr
                  0x0068b8                  _ReadResponseAndSearch_multi
                  0x00679c                  _ReadResponseByteToBuffer
                  0x0067d2                  _ReadResponseToBuffer
                  0x006ae0                  _ReturnErrorCode
                  0x00d508                  _SPI2_Exchange
                  0x00d548                  _SPI2_ExchangeBuffer
                  0x007e9c                  _SSLSocketRecvData
                  0x007e4c                  _SSLSocketSendData
                  0x0059a0                  _ScanOperatorNetwork
                  0x006ab6                  _SearchChrBuffer
                  0x006a96                  _SearchStrBuffer
                  0x00675a                  _SendATcommand
                  0x006a24                  _SendAndSearch
                  0x0069ee                  _SendAndSearchChr
                  0x006a5a                  _SendAndSearch_multi
                  0x00670e                  _SendDataAndCheck
                  0x005d7c                  _SetDevAPNParameters
                  0x0055d0                  _SetDevCommandEcho
                  0x005692                  _SetDevFunctionality
                  0x007516                  _SetFilePointer
                  0x006ff8                  _SetGNSSAutoRun
                  0x006fba                  _SetGNSSConstellation
                  0x00704c                  _SetGNSSEnableNMEASentences
                  0x006b10                  _SetHTTPConfigParameters
                  0x006c1e                  _SetHTTPEnableSSL
                  0x0053fa                  _SetPinDir
                  0x005404                  _SetPinVal
                  0x0077de                  _SetSSLCertificate
                  0x0075f8                  _SetSSLParameters
                  0x006254                  _SocketRecvData
                  0x0061a8                  _SocketSendData
                  0x0062ea                  _SocketSendHEXData
                  0x006346                  _SwitchAccessModes
                  0x007fdc                  _SwithToGSM
                  0x007fe2                  _SwithToNB
                  0x00d784                  _System_Config
                  0x008162                  _TcpClientDemo10s
                  0x007fe8                  _TcpClose
                  0x0075be                  _TruncateFile
                  0x007116                  _TurnOffGNSS
                  0x007090                  _TurnOnGNSS
                  0x00d2b2                  _Uart1_Init
                  0x00d3ae                  _Uart1_Putc
                  0x00d2fc                  _Uart2_Init
                  0x00d458                  _Uart2_Printf
                  0x00d3ca                  _Uart2_Putc
                  0x00d42a                  _Uart2_String
                  0x00b5d2                  _Uart3_Clear
                  0x00b5e4                  _Uart3_Getc
                  0x00d346                  _Uart3_Init
                  0x00d3e6                  _Uart3_Putc
                  0x00731e                  _UploadFiles
                  0x007f84                  _WaitCheckSSLSocketEvent
                  0x00668c                  _WaitCheckSocketEvent
                  0x005526                  _WaitUartNetRxIdle
                  0x0054c6                  _WaitUartRxIdle
                  0x0054f6                  _WaitUartTmpRxIdle
                  0x007486                  _WriteFile
                  0x00540e                  _WriteToBG96
                  0x0024da                  __Atexit
                  0x0023a4                  __Closreg
                  0x002466                  __DNKfflush
                  0x000658                  __DefaultInterrupt
                  0x0024f2                  __Dnorm
                  0x0abf00                  __FSEC.sec
                  0x001af6                  __Fwprep
                  0x00279e                  __Genld
                  0x00102a                  __Geterrno
                  0x002a02                  __Getmem
                  0x00258a                  __LDscale
                  0x001f76                  __LDunscale
                  0x001b84                  __Ldtob
                  0x001fca                  __Litob
                  0x000bce                  __Printf
                  0x000d32                  __Putfld
                  0x002228                  __Puttxt
                  0x000a6e                  __Stoul
                  0x000218                  __T1Interrupt
                  0x000246                  __T2Interrupt
                  0x0005fa                  __U1RXInterrupt
                  0x0005bc                  __U2RXInterrupt
                  0x000620                  __U3RXInterrupt
                  0x001036                  __Vacopy
                  0x0016f4                  ___Genld_cdfFnopsuxX
                  0x0014a4                  ___Ldtob_cdfFnopsuxX
                  0x001066                  ___Printf_cdfFnopsuxX
                  0x001066                  ___Printf_cdnopsuxX
                  0x001066                  ___Printf_cdnopuxX
                  0x001066                  ___Printf_s
                  0x0011ca                  ___Putfld_cdfFnopsuxX
                  0x0011ca                  ___Putfld_cdnopsuxX
                  0x0011ca                  ___Putfld_cdnopuxX
                  0x0011ca                  ___Putfld_s
                  0x002f30                  ___adddf3
                  0x002a36                  ___divdf3
                  0x002e74                  ___divdi3
                  0x000748                  ___divsf3
                  0x002aea                  ___divsi3
                  0x002a22                  ___eqdf2
                  0x002b92                  ___extendsfdf2
                  0x002bd0                  ___fixdfsi
                  0x00310c                  ___floatdidf
                  0x000874                  ___floatdisf
                  0x002c28                  ___floatsidf
                  0x0007cc                  ___floatsisf
                  0x00312c                  ___floatundidf
                  0x000894                  ___floatundisf
                  0x002a2c                  ___gedf2
                  0x002a2c                  ___gtdf2
                  0x002a22                  ___ledf2
                  0x002a22                  ___ltdf2
                  0x002ed4                  ___moddi3
                  0x002c30                  ___muldf3
                  0x002d20                  ___mulp32eds3
                  0x002d20                  ___mulp32peds3
                  0x002d20                  ___mulsi3
                  0x002d1c                  ___subdf3
                  0x002e5e                  ___udivdi3
                  0x002d78                  ___udivmoddi3
                  0x00084e                  ___udivsi3
                  0x002e6c                  ___umoddi3
                  0x00086e                  ___umodsi3
                  0x00307e                  __dPropagateNaN
                  0x000152                  __data_init
                  0x000152                  __data_init_da
                  0x00302c                  __dcompare
                  0x002b08                  __dpack
                  0x002b82                  __dreturnNaN
                  0x00309a                  __dtype
                  0x0030be                  __dunpack
                  0x002b60                  __dunpack2
                  0x002b88                  __dunpack2exit
                  0x00082e                  __fPropagateNaN
                  0x000840                  __fbopExit
                  0x000848                  __fbopReturnNaN
                  0x0007d2                  __fpack
                  0x0008f2                  __funpack
                  0x00081e                  __funpack2
                  0x001056                  __printf_0
                  0x001056                  __printf_cdfFnopsuxX
                  0x001056                  __printf_cdnopsuxX
                  0x001056                  __printf_cdnopuxX
                  0x001056                  __printf_s
                  0x00013c                  __psv_init
                  0x000100                  __resetPRI
                  0x00190a                  __sprintf_cdnopsuxX
                  0x00190a                  __sprintf_cdnopuxX
                  0x00c990                  _bitRead
                  0x00bf02                  _bno055_calibrate_demo
                  0x00c004                  _bno055_demo
                  0x00bdc6                  _bno055_enter_normal_mode
                  0x00bd72                  _bno055_enter_suspend_mode
                  0x00be1a                  _bno055_initial
                  0x00b998                  _bno055_read_accel
                  0x00bbda                  _bno055_read_calibrate_sta
                  0x00baea                  _bno055_read_eul
                  0x00bb8a                  _bno055_read_grv
                  0x00b9e8                  _bno055_read_gyro
                  0x00bb3a                  _bno055_read_lia
                  0x00ba38                  _bno055_read_mag
                  0x00ba88                  _bno055_read_quat
                  0x00bc96                  _bno055_read_status
                  0x00bc82                  _bno055_read_temp
                  0x00bcee                  _bno055_set_axis_remap
                  0x00bd2e                  _bno055_set_axis_sign
                  0x00bf46                  _bno055_set_ext_crystal
                  0x00bfc4                  _bno055_setup
                  0x00b938                  _bno055_verify_chip
                  0x00c304                  _calc_first_md5
                  0x00c92e                  _check_valid_card
                  0x00ab48                  _clrc663_AN1102_recommended_registers
                  0x00ab56                  _clrc663_AN1102_recommended_registers_no_transmitter
                  0x00aa0c                  _clrc663_AN1102_recommended_registers_skip
                  0x00a976                  _clrc663_AN11145_start_IQ_measurement
                  0x00a9f4                  _clrc663_AN11145_stop_IQ_measurement
                  0x00b2ae                  _clrc663_MF_auth
                  0x00b514                  _clrc663_MF_deauth
                  0x00b520                  _clrc663_MF_example_dump
                  0x00b32c                  _clrc663_MF_read_block
                  0x00b3e4                  _clrc663_MF_write_block
                  0x00d496                  _clrc663_SPI_init
                  0x00d626                  _clrc663_SPI_select
                  0x00d612                  _clrc663_SPI_transfer
                  0x00d62e                  _clrc663_SPI_unselect
                  0x00d538                  _clrc663_SPI_write
                  0x00a8b4                  _clrc663_activate_timer
                  0x00a83c                  _clrc663_clear_irq0
                  0x00a848                  _clrc663_clear_irq1
                  0x00a7ca                  _clrc663_cmd_auth
                  0x00a7a4                  _clrc663_cmd_idle
                  0x00a80c                  _clrc663_cmd_load_key
                  0x00a7b0                  _clrc663_cmd_load_key_E2
                  0x00a76a                  _clrc663_cmd_load_protocol
                  0x00a738                  _clrc663_cmd_load_reg
                  0x00a70c                  _clrc663_cmd_read_E2
                  0x00a78a                  _clrc663_cmd_transceive
                  0x00b1e4                  _clrc663_communicate
                  0x00a830                  _clrc663_fifo_length
                  0x00a824                  _clrc663_flush_fifo
                  0x00a854                  _clrc663_irq0
                  0x00a85e                  _clrc663_irq1
                  0x00abf6                  _clrc663_iso14443a_REQA
                  0x00ac00                  _clrc663_iso14443a_WUPA
                  0x00ac0a                  _clrc663_iso14443a_WUPA_REQA
                  0x00acc4                  _clrc663_iso14443a_select
                  0x00a888                  _clrc663_print_block
                  0x00a702                  _clrc663_read_error
                  0x00a6b4                  _clrc663_read_fifo
                  0x00a580                  _clrc663_read_reg
                  0x00a94a                  _clrc663_timer_get_value
                  0x00a8da                  _clrc663_timer_set_control
                  0x00a8f2                  _clrc663_timer_set_reload
                  0x00a91e                  _clrc663_timer_set_value
                  0x00a868                  _clrc663_transfer_E2_page
                  0x00a664                  _clrc663_write_fifo
                  0x00a5ac                  _clrc663_write_reg
                  0x00a5d2                  _clrc663_write_regs
                  0x00d686                  _delay_ms
                  0x001928                  _div
                  0x0023b6                  _fclose
                  0x00d390                  _fputc
                  0x00193e                  _fputs
                  0x002680                  _free
                  0x0019ce                  _fwrite
                  0x00c364                  _get_mobit_cmd_count
                  0x00d6c8                  _isDelayTimeout
                  0x00c382                  _is_supported_mobit_cmd
                  0x00100c                  _isspace
                  0x001a76                  _ldiv
                  0x00cfd0                  _main
                  0x00274a                  _malloc
                  0x001aa0                  _memchr
                  0x00091c                  _memcpy
                  0x00092a                  _memset
                  0x00c3ee                  _parse_mobit_msg
                  0x00c960                  _print_PUPI
                  0x00c804                  _print_block
                  0x00c85c                  _print_block_01
                  0x00ca42                  _print_card_ID
                  0x00c8b8                  _print_card_ID_block
                  0x00c978                  _print_serial_nr
                  0x00ce4e                  _process_bg96
                  0x000938                  _putchar
                  0x00093c                  _puts
                  0x00ca58                  _read_iso14443B_nfc_card
                  0x00d29c                  _ringbuffer_buf_free_size
                  0x00d242                  _ringbuffer_buf_use_size
                  0x00d228                  _ringbuffer_clear
                  0x00d086                  _ringbuffer_init
                  0x00d144                  _ringbuffer_read
                  0x00d1a2                  _ringbuffer_read_len
                  0x00d0b0                  _ringbuffer_write
                  0x00d108                  _ringbuffer_write_byte
                  0x00c9ae                  _shift
                  0x000952                  _strcat
                  0x000966                  _strchr
                  0x00097e                  _strcmp
                  0x00099e                  _strcpy
                  0x001ab4                  _strcspn
                  0x0009aa                  _strlen
                  0x0009b6                  _strncmp
                  0x0009de                  _strncpy
                  0x0009fc                  _strrchr
                  0x001ad6                  _strspn
                  0x000a10                  _strstr
                  0x000a3a                  _strtok
                  0x00101c                  _tolower
                  0x00d400                  _uart3_write_bytes
                  0x000bb4                  _vsprintf
                  0x002446                  fclose.DA_elo:_closeall
                  0x00103a                  printf_cdfFnopsuxX.DAeo:_prout
                  0x0018fc                  sprintf_cdnopsuxX.DAeo:_prout
                  0x000ba6                  vsprintf.DA_eo:_prout

Memory Configuration

Name             Origin             Length             Attributes
data             0x000800           0x008000           a !xr
FBOOT            0x801800           0x000002  
reset            0x000000           0x000004  
ivt              0x000004           0x0000fc  
program          0x000100           0x0abe00           xr
FSEC             0x0abf00           0x000002  
FBSLIM           0x0abf10           0x000002  
FSIGN            0x0abf14           0x000002  
FOSCSEL          0x0abf18           0x000002  
FOSC             0x0abf1c           0x000002  
FWDT             0x0abf20           0x000002  
FPOR             0x0abf24           0x000002  
FICD             0x0abf28           0x000002  
FDEVOPT1         0x0abf2c           0x000002  
*default*        0x000000           0xffffffff  

Linker script and memory map

LOAD build/default/production/000_Main.o
LOAD build/default/production/001_Tick_10ms.o
LOAD build/default/production/002_CLRC663.o
LOAD build/default/production/003_BG96.o
LOAD build/default/production/004_LB1938.o
LOAD build/default/production/005_BNO055.o
LOAD build/default/production/006_Gpio.o
LOAD build/default/production/007_Uart.o
LOAD build/default/production/008_RingBuffer.o
LOAD build/default/production/009_System.o
LOAD build/default/production/012_CLRC663_NFC.o
LOAD build/default/production/011_Spi.o
LOAD build/default/production/013_Protocol.o
LOAD build/default/production/014_md5.o
                    0x0001                  __MPLAB_BUILD = 0x1
LOAD pPIC24Fxxx
LOAD c:/program files (x86)/microchip/xc16/v1.36/bin/bin/../../lib\libfx-elf.a
                    0x801800                  __FBOOT = 0x801800
                    0xabf00                  __FSEC = 0xabf00
                    0xabf10                  __FBSLIM = 0xabf10
                    0xabf14                  __FSIGN = 0xabf14
                    0xabf18                  __FOSCSEL = 0xabf18
                    0xabf1c                  __FOSC = 0xabf1c
                    0xabf20                  __FWDT = 0xabf20
                    0xabf24                  __FPOR = 0xabf24
                    0xabf28                  __FICD = 0xabf28
                    0xabf2c                  __FDEVOPT1 = 0xabf2c
                    0x0100                  __CODE_BASE = 0x100
                    0xabe00                  __CODE_LENGTH = 0xabe00
                    0x0004                  __IVT_BASE = 0x4
                    0x0800                  __DATA_BASE = 0x800
                    0x8000                  __DATA_LENGTH = 0x8000

.reset            0x000000          0x4
                  0x000000          0x2 SHORT 0x100 ABSOLUTE (__reset)
                  0x000001          0x2 SHORT 0x4
                  0x000002          0x2 SHORT 0x0 ((ABSOLUTE (__reset) >> 0x10) & 0x7f)
                  0x000003          0x2 SHORT 0x0

.text             0x000100       0x3082
 *(.init)
 .init            0x000100         0x4c c:/program files (x86)/microchip/xc16/v1.36/bin/bin/../../lib\liblega-pic30-elf.a(crt0_extended24.o)
                  0x000100                  __resetPRI
                  0x000100                  __reset
                  0x00013c                  __psv_init
 .init            0x00014c         0xb8 c:/program files (x86)/microchip/xc16/v1.36/bin/bin/../../lib\liblega-pic30-elf.a(data_init_24.o)
                  0x000152                  __data_init
                  0x000152                  __data_init_da
 *(.user_init)
 *(.handle)
 .handle          0x000204         0x14 jump_table
 *(.isr*)
 .isr.text        0x000218        0x3a4 build/default/production/001_Tick_10ms.o
                  0x000218                  __T1Interrupt
                  0x000246                  __T2Interrupt
 .isr.text        0x0005bc         0x9c build/default/production/007_Uart.o
                  0x0005bc                  __U2RXInterrupt
                  0x0005fa                  __U1RXInterrupt
                  0x000620                  __U3RXInterrupt
 .isr             0x000658          0x4 default_isr
                  0x000658                  __DefaultInterrupt
 *(.libc)
 .libc            0x00065c         0x12 c:/program files (x86)/microchip/xc16/v1.36/bin/bin/../../lib\liblega-pic30-elf.a(closeda.Leo)
                  0x00065c                  _close
 .libc            0x00066e         0x84 c:/program files (x86)/microchip/xc16/v1.36/bin/bin/../../lib\liblega-pic30-elf.a(writeda.Leo)
                  0x00066e                  _write
 .libc            0x0006f2         0x12 c:/program files (x86)/microchip/xc16/v1.36/bin/bin/../../lib\liblega-pic30-elf.a(removeda.Leo)
                  0x0006f2                  _remove
 .libc            0x000704         0x28 c:/program files (x86)/microchip/xc16/v1.36/bin/bin/../../lib\liblega-pic30-elf.a(sbrkda.Leo)
                  0x000704                  _sbrk
 .libc            0x00072c         0x1a c:/program files (x86)/microchip/xc16/v1.36/bin/bin/../../lib\liblega-pic30-elf.a(brkda.Lelo)
                  0x00072c                  _brk
 *(.libm)
 *(.libdsp)
 *(.lib*)
 .libpic30_crt_start_mode
                  0x000746          0x2 c:/program files (x86)/microchip/xc16/v1.36/bin/bin/../../lib\liblega-pic30-elf.a(crt_start_mode_normalda.Leo)
                  0x000746                  __crt_start_mode
                  0x000746                  __crt_start_mode_normal
 .libm.divfs3     0x000748         0x84 c:/program files (x86)/microchip/xc16/v1.36/bin/bin/../../lib\libm-elf.a(divsf3.daeo)
                  0x000748                  ___divsf3
 .libm.floatsisf
                  0x0007cc          0x6 c:/program files (x86)/microchip/xc16/v1.36/bin/bin/../../lib\libm-elf.a(floatsisf.daeo)
                  0x0007cc                  ___floatsisf
 .libm.fpack      0x0007d2         0x4c c:/program files (x86)/microchip/xc16/v1.36/bin/bin/../../lib\libm-elf.a(fpack.daeo)
                  0x0007d2                  __fpack
 .libm.funpack2
                  0x00081e         0x10 c:/program files (x86)/microchip/xc16/v1.36/bin/bin/../../lib\libm-elf.a(funpack2.daeo)
                  0x00081e                  __funpack2
 .libm.fPropagateNaN
                  0x00082e         0x12 c:/program files (x86)/microchip/xc16/v1.36/bin/bin/../../lib\libm-elf.a(futil.daeo)
                  0x00082e                  __fPropagateNaN
 .libm.fbobExit
                  0x000840          0x8 c:/program files (x86)/microchip/xc16/v1.36/bin/bin/../../lib\libm-elf.a(futil.daeo)
                  0x000840                  __fbopExit
 .libm.fbopReturnNaN
                  0x000848          0x6 c:/program files (x86)/microchip/xc16/v1.36/bin/bin/../../lib\libm-elf.a(futil.daeo)
                  0x000848                  __fbopReturnNaN
 .libm.udivsi3    0x00084e         0x20 c:/program files (x86)/microchip/xc16/v1.36/bin/bin/../../lib\libm-elf.a(udivsi3.daeo)
                  0x00084e                  ___udivsi3
 .libm.umodsi3    0x00086e          0x6 c:/program files (x86)/microchip/xc16/v1.36/bin/bin/../../lib\libm-elf.a(umodsi3.daeo)
                  0x00086e                  ___umodsi3
 .libm.floatdisf
                  0x000874         0x20 c:/program files (x86)/microchip/xc16/v1.36/bin/bin/../../lib\libm-elf.a(floatdisf.daeo)
                  0x000874                  ___floatdisf
 .libm.floatundisf
                  0x000894         0x5e c:/program files (x86)/microchip/xc16/v1.36/bin/bin/../../lib\libm-elf.a(floatundisf.daeo)
                  0x000894                  ___floatundisf
 .libm.funpack    0x0008f2         0x2a c:/program files (x86)/microchip/xc16/v1.36/bin/bin/../../lib\libm-elf.a(funpack.daeo)
                  0x0008f2                  __funpack
 .libc.memcpy     0x00091c          0xe c:/program files (x86)/microchip/xc16/v1.36/bin/bin/../../lib\liblega-c-elf.a(memcpy.DA_eo)
                  0x00091c                  _memcpy
 .libc.memset     0x00092a          0xe c:/program files (x86)/microchip/xc16/v1.36/bin/bin/../../lib\liblega-c-elf.a(memset.DA_eo)
                  0x00092a                  _memset
 .libc.putchar    0x000938          0x4 c:/program files (x86)/microchip/xc16/v1.36/bin/bin/../../lib\liblega-c-elf.a(putchar.DA_eo)
                  0x000938                  _putchar
 .libc.puts       0x00093c         0x16 c:/program files (x86)/microchip/xc16/v1.36/bin/bin/../../lib\liblega-c-elf.a(puts.DA_eo)
                  0x00093c                  _puts
 .libc.strcat     0x000952         0x14 c:/program files (x86)/microchip/xc16/v1.36/bin/bin/../../lib\liblega-c-elf.a(strcat.DA_eo)
                  0x000952                  _strcat
 .libc.strchr     0x000966         0x18 c:/program files (x86)/microchip/xc16/v1.36/bin/bin/../../lib\liblega-c-elf.a(strchr.DA_eo)
                  0x000966                  _strchr
 .libc.strcmp     0x00097e         0x20 c:/program files (x86)/microchip/xc16/v1.36/bin/bin/../../lib\liblega-c-elf.a(strcmp.DA_eo)
                  0x00097e                  _strcmp
 .libc.strcpy     0x00099e          0xc c:/program files (x86)/microchip/xc16/v1.36/bin/bin/../../lib\liblega-c-elf.a(strcpy.DA_eo)
                  0x00099e                  _strcpy
 .libc.strlen     0x0009aa          0xc c:/program files (x86)/microchip/xc16/v1.36/bin/bin/../../lib\liblega-c-elf.a(strlen.DA_eo)
                  0x0009aa                  _strlen
 .libc.strncmp    0x0009b6         0x28 c:/program files (x86)/microchip/xc16/v1.36/bin/bin/../../lib\liblega-c-elf.a(strncmp.DA_eo)
                  0x0009b6                  _strncmp
 .libc.strncpy    0x0009de         0x1e c:/program files (x86)/microchip/xc16/v1.36/bin/bin/../../lib\liblega-c-elf.a(strncpy.DA_eo)
                  0x0009de                  _strncpy
 .libc.strrchr    0x0009fc         0x14 c:/program files (x86)/microchip/xc16/v1.36/bin/bin/../../lib\liblega-c-elf.a(strrchr.DA_eo)
                  0x0009fc                  _strrchr
 .libc.strstr     0x000a10         0x2a c:/program files (x86)/microchip/xc16/v1.36/bin/bin/../../lib\liblega-c-elf.a(strstr.DA_eo)
                  0x000a10                  _strstr
 .libc.strtok     0x000a3a         0x34 c:/program files (x86)/microchip/xc16/v1.36/bin/bin/../../lib\liblega-c-elf.a(strtok.DA_eo)
                  0x000a3a                  _strtok
 .libc._Stoul     0x000a6e        0x138 c:/program files (x86)/microchip/xc16/v1.36/bin/bin/../../lib\liblega-c-elf.a(xstoul.DA_eo)
                  0x000a6e                  __Stoul
 .libc.prout      0x000ba6          0xe c:/program files (x86)/microchip/xc16/v1.36/bin/bin/../../lib\liblega-c-elf.a(vsprintf.DA_eo)
                  0x000ba6                  vsprintf.DA_eo:_prout
 .libc.vsprintf
                  0x000bb4         0x1a c:/program files (x86)/microchip/xc16/v1.36/bin/bin/../../lib\liblega-c-elf.a(vsprintf.DA_eo)
                  0x000bb4                  _vsprintf
 .libc._Printf    0x000bce        0x164 c:/program files (x86)/microchip/xc16/v1.36/bin/bin/../../lib\liblega-c-elf.a(xprintf.DA_eo)
                  0x000bce                  __Printf
 .libc._Putfld    0x000d32        0x2da c:/program files (x86)/microchip/xc16/v1.36/bin/bin/../../lib\liblega-c-elf.a(xputfld.DA_eo)
                  0x000d32                  __Putfld
 .libc.isspace    0x00100c         0x10 c:/program files (x86)/microchip/xc16/v1.36/bin/bin/../../lib\liblega-c-elf.a(isspace.DA_elso)
                  0x00100c                  _isspace
 .libc.tolower    0x00101c          0xe c:/program files (x86)/microchip/xc16/v1.36/bin/bin/../../lib\liblega-c-elf.a(tolower.DA_elso)
                  0x00101c                  _tolower
 .libc._Geterrno
                  0x00102a          0xc c:/program files (x86)/microchip/xc16/v1.36/bin/bin/../../lib\liblega-c-elf.a(errno.DA_elo)
                  0x00102a                  __Geterrno
 .libc._Vacopy    0x001036          0x4 c:/program files (x86)/microchip/xc16/v1.36/bin/bin/../../lib\liblega-c-elf.a(xvacopy.DA_elo)
                  0x001036                  __Vacopy
 .libc.prout      0x00103a         0x1c c:/program files (x86)/microchip/xc16/v1.36/bin/bin/../../lib\liblega-c-elf.a(printf_cdfFnopsuxX.DAeo)
                  0x00103a                  printf_cdfFnopsuxX.DAeo:_prout
 .libc._printf_cdfFnopsuxX
                  0x001056         0x10 c:/program files (x86)/microchip/xc16/v1.36/bin/bin/../../lib\liblega-c-elf.a(printf_cdfFnopsuxX.DAeo)
                  0x001056                  __printf_0
                  0x001056                  __printf_s
                  0x001056                  __printf_cdnopuxX
                  0x001056                  __printf_cdfFnopsuxX
                  0x001056                  __printf_cdnopsuxX
 .libc.__Printf_cdfFnopsuxX
                  0x001066        0x164 c:/program files (x86)/microchip/xc16/v1.36/bin/bin/../../lib\liblega-c-elf.a(xprintf_cdfFnopsuxX.DAeo)
                  0x001066                  ___Printf_s
                  0x001066                  ___Printf_cdfFnopsuxX
                  0x001066                  ___Printf_cdnopuxX
                  0x001066                  ___Printf_cdnopsuxX
 .libc.__Putfld_cdfFnopsuxX
                  0x0011ca        0x2da c:/program files (x86)/microchip/xc16/v1.36/bin/bin/../../lib\liblega-c-elf.a(xputfld_cdfFnopsuxX.DAeo)
                  0x0011ca                  ___Putfld_cdnopuxX
                  0x0011ca                  ___Putfld_cdnopsuxX
                  0x0011ca                  ___Putfld_cdfFnopsuxX
                  0x0011ca                  ___Putfld_s
 .libc.__Ldtob_cdfFnopsuxX
                  0x0014a4        0x250 c:/program files (x86)/microchip/xc16/v1.36/bin/bin/../../lib\liblega-c-elf.a(xldtob_cdfFnopsuxX.DAeo)
                  0x0014a4                  ___Ldtob_cdfFnopsuxX
 .libc.__Genld_cdfFnopsuxX
                  0x0016f4        0x208 c:/program files (x86)/microchip/xc16/v1.36/bin/bin/../../lib\liblega-c-elf.a(xgenld_cdfFnopsuxX.DAeo)
                  0x0016f4                  ___Genld_cdfFnopsuxX
 .libc.prout      0x0018fc          0xe c:/program files (x86)/microchip/xc16/v1.36/bin/bin/../../lib\liblega-c-elf.a(sprintf_cdnopsuxX.DAeo)
                  0x0018fc                  sprintf_cdnopsuxX.DAeo:_prout
 .libc._sprintf_cdnopsuxX
                  0x00190a         0x1e c:/program files (x86)/microchip/xc16/v1.36/bin/bin/../../lib\liblega-c-elf.a(sprintf_cdnopsuxX.DAeo)
                  0x00190a                  __sprintf_cdnopuxX
                  0x00190a                  __sprintf_cdnopsuxX
 .libc.div        0x001928         0x16 c:/program files (x86)/microchip/xc16/v1.36/bin/bin/../../lib\liblega-c-elf.a(div.DA_eo)
                  0x001928                  _div
 .libc.fputs      0x00193e         0x90 c:/program files (x86)/microchip/xc16/v1.36/bin/bin/../../lib\liblega-c-elf.a(fputs.DA_eo)
                  0x00193e                  _fputs
 .libc.fwrite     0x0019ce         0xa8 c:/program files (x86)/microchip/xc16/v1.36/bin/bin/../../lib\liblega-c-elf.a(fwrite.DA_eo)
                  0x0019ce                  _fwrite
 .libc.ldiv       0x001a76         0x2a c:/program files (x86)/microchip/xc16/v1.36/bin/bin/../../lib\liblega-c-elf.a(ldiv.DA_eo)
                  0x001a76                  _ldiv
 .libc.memchr     0x001aa0         0x14 c:/program files (x86)/microchip/xc16/v1.36/bin/bin/../../lib\liblega-c-elf.a(memchr.DA_eo)
                  0x001aa0                  _memchr
 .libc.strcspn    0x001ab4         0x22 c:/program files (x86)/microchip/xc16/v1.36/bin/bin/../../lib\liblega-c-elf.a(strcspn.DA_eo)
                  0x001ab4                  _strcspn
 .libc.strspn     0x001ad6         0x20 c:/program files (x86)/microchip/xc16/v1.36/bin/bin/../../lib\liblega-c-elf.a(strspn.DA_eo)
                  0x001ad6                  _strspn
 .libc._Fwprep    0x001af6         0x8e c:/program files (x86)/microchip/xc16/v1.36/bin/bin/../../lib\liblega-c-elf.a(xfwprep.DA_eo)
                  0x001af6                  __Fwprep
 .libc._Ldtob     0x001b84        0x3f2 c:/program files (x86)/microchip/xc16/v1.36/bin/bin/../../lib\liblega-c-elf.a(xldtob.DA_eo)
                  0x001b84                  __Ldtob
 .libc._LDunscale
                  0x001f76         0x54 c:/program files (x86)/microchip/xc16/v1.36/bin/bin/../../lib\liblega-c-elf.a(xldunsca.DA_eo)
                  0x001f76                  __LDunscale
 .libc._Litob     0x001fca        0x25e c:/program files (x86)/microchip/xc16/v1.36/bin/bin/../../lib\liblega-c-elf.a(xlitob.DA_eo)
                  0x001fca                  __Litob
 .libc._Puttxt    0x002228        0x178 c:/program files (x86)/microchip/xc16/v1.36/bin/bin/../../lib\liblega-c-elf.a(xputtxt.DA_eo)
                  0x002228                  __Puttxt
 .libc.closeallreg
                  0x0023a0          0x4 c:/program files (x86)/microchip/xc16/v1.36/bin/bin/../../lib\liblega-c-elf.a(fclose.DA_elo)
 .libc._Closreg
                  0x0023a4         0x12 c:/program files (x86)/microchip/xc16/v1.36/bin/bin/../../lib\liblega-c-elf.a(fclose.DA_elo)
                  0x0023a4                  __Closreg
 .libc.fclose     0x0023b6         0x90 c:/program files (x86)/microchip/xc16/v1.36/bin/bin/../../lib\liblega-c-elf.a(fclose.DA_elo)
                  0x0023b6                  _fclose
 .libc.closeall
                  0x002446         0x20 c:/program files (x86)/microchip/xc16/v1.36/bin/bin/../../lib\liblega-c-elf.a(fclose.DA_elo)
                  0x002446                  fclose.DA_elo:_closeall
 .libc._DNKfflush
                  0x002466         0x74 c:/program files (x86)/microchip/xc16/v1.36/bin/bin/../../lib\liblega-c-elf.a(fflush.DA_elo)
                  0x002466                  __DNKfflush
 .libc._Atexit    0x0024da         0x18 c:/program files (x86)/microchip/xc16/v1.36/bin/bin/../../lib\liblega-c-elf.a(xatexit.DA_elo)
                  0x0024da                  __Atexit
 .libc._Dnorm     0x0024f2         0x98 c:/program files (x86)/microchip/xc16/v1.36/bin/bin/../../lib\liblega-c-elf.a(xdnorm.DA_elo)
                  0x0024f2                  __Dnorm
 .libc._LDscale
                  0x00258a         0xf6 c:/program files (x86)/microchip/xc16/v1.36/bin/bin/../../lib\liblega-c-elf.a(xldscale.DA_elo)
                  0x00258a                  __LDscale
 .libc.free       0x002680         0x64 c:/program files (x86)/microchip/xc16/v1.36/bin/bin/../../lib\liblega-c-elf.a(free.DA_eo)
                  0x002680                  _free
 .libc.findmem    0x0026e4         0x66 c:/program files (x86)/microchip/xc16/v1.36/bin/bin/../../lib\liblega-c-elf.a(malloc.DA_eo)
 .libc.malloc     0x00274a         0x54 c:/program files (x86)/microchip/xc16/v1.36/bin/bin/../../lib\liblega-c-elf.a(malloc.DA_eo)
                  0x00274a                  _malloc
 .libc._Genld     0x00279e        0x264 c:/program files (x86)/microchip/xc16/v1.36/bin/bin/../../lib\liblega-c-elf.a(xgenld.DA_eo)
                  0x00279e                  __Genld
 .libc._Getmem    0x002a02         0x14 c:/program files (x86)/microchip/xc16/v1.36/bin/bin/../../lib\liblega-c-elf.a(xgetmem.DA_eo)
                  0x002a02                  __Getmem
 .libc.doclose    0x002a16          0x4 c:/program files (x86)/microchip/xc16/v1.36/bin/bin/../../lib\liblega-pic30-elf.a(closeda.Leo)
 .libc.dowrite    0x002a1a          0x4 c:/program files (x86)/microchip/xc16/v1.36/bin/bin/../../lib\liblega-pic30-elf.a(writeda.Leo)
 .libc.doremove
                  0x002a1e          0x4 c:/program files (x86)/microchip/xc16/v1.36/bin/bin/../../lib\liblega-pic30-elf.a(removeda.Leo)
 .libm.eqdf2      0x002a22          0xa c:/program files (x86)/microchip/xc16/v1.36/bin/bin/../../lib\libm-elf.a(deqltle.daeo)
                  0x002a22                  ___eqdf2
                  0x002a22                  ___ltdf2
                  0x002a22                  ___ledf2
 .libm.gtdf2      0x002a2c          0xa c:/program files (x86)/microchip/xc16/v1.36/bin/bin/../../lib\libm-elf.a(dgtge.daeo)
                  0x002a2c                  ___gtdf2
                  0x002a2c                  ___gedf2
 .libm.divdf3     0x002a36         0xb4 c:/program files (x86)/microchip/xc16/v1.36/bin/bin/../../lib\libm-elf.a(divdf3.daeo)
                  0x002a36                  ___divdf3
 .libm.divsi3     0x002aea         0x1e c:/program files (x86)/microchip/xc16/v1.36/bin/bin/../../lib\libm-elf.a(divsi3.daeo)
                  0x002aea                  ___divsi3
 .libm.dpack      0x002b08         0x58 c:/program files (x86)/microchip/xc16/v1.36/bin/bin/../../lib\libm-elf.a(dpack.daeo)
                  0x002b08                  __dpack
 .libm.dunpack2
                  0x002b60         0x32 c:/program files (x86)/microchip/xc16/v1.36/bin/bin/../../lib\libm-elf.a(dunpack2.daeo)
                  0x002b60                  __dunpack2
                  0x002b82                  __dreturnNaN
                  0x002b88                  __dunpack2exit
 .libm.extendsfdf2
                  0x002b92         0x3e c:/program files (x86)/microchip/xc16/v1.36/bin/bin/../../lib\libm-elf.a(extendsfdf.daeo)
                  0x002b92                  ___extendsfdf2
 .libm.fixdfsi    0x002bd0         0x58 c:/program files (x86)/microchip/xc16/v1.36/bin/bin/../../lib\libm-elf.a(fixdfsi.daeo)
                  0x002bd0                  _(float, int, long long, double, float, short, int)
 .libm.floatsidf
                  0x002c28          0x6 c:/program files (x86)/microchip/xc16/v1.36/bin/bin/../../lib\libm-elf.a(floatsidf.daeo)
                  0x002c28                  ___floatsidf
 *fill*           0x002c2e          0x400
 .libm.muldf3     0x002c30         0xec c:/program files (x86)/microchip/xc16/v1.36/bin/bin/../../lib\libm-elf.a(muldf3.daeo)
                  0x002c30                  ___muldf3
 .libm.subdf3     0x002d1c          0x4 c:/program files (x86)/microchip/xc16/v1.36/bin/bin/../../lib\libm-elf.a(subdf3.daeo)
                  0x002d1c                  ___subdf3
 .libm.mulsi3     0x002d20          0xc c:/program files (x86)/microchip/xc16/v1.36/bin/bin/../../lib\libm-elf.a(mulsi3.daeo)
                  0x002d20                  ___mulp32peds3
                  0x002d20                  ___mulsi3
                  0x002d20                  ___mulp32eds3
 .libm.__PplusBdi
                  0x002d2c         0x26 c:/program files (x86)/microchip/xc16/v1.36/bin/bin/../../lib\libm-elf.a(divmoddi3.daeo)
 .libm.__PminusBdi
                  0x002d52         0x26 c:/program files (x86)/microchip/xc16/v1.36/bin/bin/../../lib\libm-elf.a(divmoddi3.daeo)
 .libm.__udivmoddi3
                  0x002d78         0xe6 c:/program files (x86)/microchip/xc16/v1.36/bin/bin/../../lib\libm-elf.a(divmoddi3.daeo)
                  0x002d78                  ___udivmoddi3
 .libm.__udivdi3
                  0x002e5e          0xe c:/program files (x86)/microchip/xc16/v1.36/bin/bin/../../lib\libm-elf.a(divmoddi3.daeo)
                  0x002e5e                  ___udivdi3
 .libm.__umoddi3
                  0x002e6c          0x8 c:/program files (x86)/microchip/xc16/v1.36/bin/bin/../../lib\libm-elf.a(divmoddi3.daeo)
                  0x002e6c                  ___umoddi3
 .libm.__divdi3
                  0x002e74         0x60 c:/program files (x86)/microchip/xc16/v1.36/bin/bin/../../lib\libm-elf.a(divmoddi3.daeo)
                  0x002e74                  ___divdi3
 .libm.__moddi3
                  0x002ed4         0x5c c:/program files (x86)/microchip/xc16/v1.36/bin/bin/../../lib\libm-elf.a(divmoddi3.daeo)
                  0x002ed4                  ___moddi3
 .libm.adddf3     0x002f30         0xfc c:/program files (x86)/microchip/xc16/v1.36/bin/bin/../../lib\libm-elf.a(adddf3.daeo)
                  0x002f30                  ___adddf3
 .libm.dcompare
                  0x00302c         0x52 c:/program files (x86)/microchip/xc16/v1.36/bin/bin/../../lib\libm-elf.a(dcompare.daeo)
                  0x00302c                  __dcompare
 .libm.dPropagateNaN
                  0x00307e         0x1c c:/program files (x86)/microchip/xc16/v1.36/bin/bin/../../lib\libm-elf.a(dpropagateNaN.daeo)
                  0x00307e                  __dPropagateNaN
 .libm.dtype      0x00309a         0x24 c:/program files (x86)/microchip/xc16/v1.36/bin/bin/../../lib\libm-elf.a(dtype.daeo)
                  0x00309a                  __dtype
 .libm.dunpack    0x0030be         0x4e c:/program files (x86)/microchip/xc16/v1.36/bin/bin/../../lib\libm-elf.a(dunpack.daeo)
                  0x0030be                  __dunpack
 .libm.floatdidf
                  0x00310c         0x20 c:/program files (x86)/microchip/xc16/v1.36/bin/bin/../../lib\libm-elf.a(floatdidf.daeo)
                  0x00310c                  ___floatdidf
 .libm.floatundidf
                  0x00312c         0x56 c:/program files (x86)/microchip/xc16/v1.36/bin/bin/../../lib\libm-elf.a(floatundidf.daeo)
                  0x00312c                  ___floatundidf

usercode
 *(usercode)

__FBOOT
 *(__FBOOT.sec*)

__FSEC            0x0abf00          0x2
 *(__FSEC.sec*)
 __FSEC.sec       0x0abf00          0x2 /CW/_FSEC
                  0x0abf00                  __FSEC.sec

__FBSLIM
 *(__FBSLIM.sec*)

__FSIGN
 *(__FSIGN.sec*)

__FOSCSEL
 *(__FOSCSEL.sec*)

__FOSC
 *(__FOSC.sec*)

__FWDT
 *(__FWDT.sec*)

__FPOR
 *(__FPOR.sec*)

__FICD
 *(__FICD.sec*)

__FDEVOPT1
 *(__FDEVOPT1.sec*)

.comment          0x000000         0x5e
 *(.comment)
 .comment         0x000000         0x5e c:/program files (x86)/microchip/xc16/v1.36/bin/bin/../../lib\liblega-c-elf.a(xfiles.DA_eo)

.debug_info       0x000000       0xf849
 *(.debug_info)
 .debug_info      0x000000       0x102d build/default/production/000_Main.o
 .debug_info      0x00102d        0xf62 build/default/production/001_Tick_10ms.o
 .debug_info      0x001f8f       0x13c0 build/default/production/002_CLRC663.o
 .debug_info      0x00334f       0x4d42 build/default/production/003_BG96.o
 .debug_info      0x008091        0x126 build/default/production/004_LB1938.o
 .debug_info      0x0081b7        0xd5d build/default/production/005_BNO055.o
 .debug_info      0x008f14        0x21b build/default/production/006_Gpio.o
 .debug_info      0x00912f       0x3159 build/default/production/007_Uart.o
 .debug_info      0x00c288        0x43a build/default/production/008_RingBuffer.o
 .debug_info      0x00c6c2        0x178 build/default/production/009_System.o
 .debug_info      0x00c83a        0x582 build/default/production/012_CLRC663_NFC.o
 .debug_info      0x00cdbc       0x111b build/default/production/011_Spi.o
 .debug_info      0x00ded7       0x1501 build/default/production/013_Protocol.o
 .debug_info      0x00f3d8        0x471 build/default/production/014_md5.o
 *(.gnu.linkonce.wi.*)

.debug_abbrev     0x000000       0x1014
 *(.debug_abbrev)
 .debug_abbrev    0x000000        0x108 build/default/production/000_Main.o
 .debug_abbrev    0x000108        0x1eb build/default/production/001_Tick_10ms.o
 .debug_abbrev    0x0002f3        0x1af build/default/production/002_CLRC663.o
 .debug_abbrev    0x0004a2        0x244 build/default/production/003_BG96.o
 .debug_abbrev    0x0006e6         0x34 build/default/production/004_LB1938.o
 .debug_abbrev    0x00071a        0x16e build/default/production/005_BNO055.o
 .debug_abbrev    0x000888         0x7f build/default/production/006_Gpio.o
 .debug_abbrev    0x000907        0x1d0 build/default/production/007_Uart.o
 .debug_abbrev    0x000ad7         0xc5 build/default/production/008_RingBuffer.o
 .debug_abbrev    0x000b9c         0x59 build/default/production/009_System.o
 .debug_abbrev    0x000bf5         0xc9 build/default/production/012_CLRC663_NFC.o
 .debug_abbrev    0x000cbe        0x13d build/default/production/011_Spi.o
 .debug_abbrev    0x000dfb        0x150 build/default/production/013_Protocol.o
 .debug_abbrev    0x000f4b         0xc9 build/default/production/014_md5.o

.debug_line       0x000000       0x1979
 *(.debug_line)
 .debug_line      0x000000         0xb7 build/default/production/000_Main.o
 .debug_line      0x0000b7        0x203 build/default/production/001_Tick_10ms.o
 .debug_line      0x0002ba        0x322 build/default/production/002_CLRC663.o
 .debug_line      0x0005dc        0x789 build/default/production/003_BG96.o
 .debug_line      0x000d65         0x3a build/default/production/004_LB1938.o
 .debug_line      0x000d9f        0x2aa build/default/production/005_BNO055.o
 .debug_line      0x001049         0xf5 build/default/production/006_Gpio.o
 .debug_line      0x00113e        0x1b0 build/default/production/007_Uart.o
 .debug_line      0x0012ee         0xb4 build/default/production/008_RingBuffer.o
 .debug_line      0x0013a2         0xf1 build/default/production/009_System.o
 .debug_line      0x001493         0xfb build/default/production/012_CLRC663_NFC.o
 .debug_line      0x00158e        0x14c build/default/production/011_Spi.o
 .debug_line      0x0016da        0x116 build/default/production/013_Protocol.o
 .debug_line      0x0017f0        0x189 build/default/production/014_md5.o

.debug_frame      0x000000       0x243e
 *(.debug_frame)
 .debug_frame     0x000000         0x68 build/default/production/000_Main.o
 .debug_frame     0x000068        0x16e build/default/production/001_Tick_10ms.o
 .debug_frame     0x0001d6        0x5c6 build/default/production/002_CLRC663.o
 .debug_frame     0x00079c       0x1070 build/default/production/003_BG96.o
 .debug_frame     0x00180c         0x30 build/default/production/004_LB1938.o
 .debug_frame     0x00183c        0x3dc build/default/production/005_BNO055.o
 .debug_frame     0x001c18         0x4c build/default/production/006_Gpio.o
 .debug_frame     0x001c64        0x1be build/default/production/007_Uart.o
 .debug_frame     0x001e22         0xfa build/default/production/008_RingBuffer.o
 .debug_frame     0x001f1c         0x30 build/default/production/009_System.o
 .debug_frame     0x001f4c        0x1ee build/default/production/012_CLRC663_NFC.o
 .debug_frame     0x00213a         0xd8 build/default/production/011_Spi.o
 .debug_frame     0x002212        0x162 build/default/production/013_Protocol.o
 .debug_frame     0x002374         0xca build/default/production/014_md5.o

.debug_str        0x000000        0x690
 *(.debug_str)
 .debug_str       0x000000         0x1b build/default/production/000_Main.o
 .debug_str       0x00001b         0x7a build/default/production/001_Tick_10ms.o
 .debug_str       0x000095         0x94 build/default/production/002_CLRC663.o
 .debug_str       0x000129        0x194 build/default/production/003_BG96.o
 .debug_str       0x0002bd         0x71 build/default/production/005_BNO055.o
 .debug_str       0x00032e        0x14f build/default/production/007_Uart.o
 .debug_str       0x00047d          0xb build/default/production/008_RingBuffer.o
 .debug_str       0x000488          0x6 build/default/production/012_CLRC663_NFC.o
 .debug_str       0x00048e         0xff build/default/production/011_Spi.o
 .debug_str       0x00058d         0xfb build/default/production/013_Protocol.o
 .debug_str       0x000688          0x8 build/default/production/014_md5.o

.debug_loc
 *(.debug_loc)

.debug_macinfo
 *(.debug_macinfo)

.debug_pubnames
                  0x000000       0x17e7
 *(.debug_pubnames)
 .debug_pubnames
                  0x000000         0xad build/default/production/000_Main.o
 .debug_pubnames
                  0x0000ad         0xce build/default/production/001_Tick_10ms.o
 .debug_pubnames
                  0x00017b        0x4b6 build/default/production/002_CLRC663.o
 .debug_pubnames
                  0x000631        0x95a build/default/production/003_BG96.o
 .debug_pubnames
                  0x000f8b         0x27 build/default/production/004_LB1938.o
 .debug_pubnames
                  0x000fb2        0x232 build/default/production/005_BNO055.o
 .debug_pubnames
                  0x0011e4         0x32 build/default/production/006_Gpio.o
 .debug_pubnames
                  0x001216        0x11d build/default/production/007_Uart.o
 .debug_pubnames
                  0x001333         0xcf build/default/production/008_RingBuffer.o
 .debug_pubnames
                  0x001402         0x24 build/default/production/009_System.o
 .debug_pubnames
                  0x001426         0xc9 build/default/production/012_CLRC663_NFC.o
 .debug_pubnames
                  0x0014ef         0xb0 build/default/production/011_Spi.o
 .debug_pubnames
                  0x00159f        0x1ac build/default/production/013_Protocol.o
 .debug_pubnames
                  0x00174b         0x9c build/default/production/014_md5.o

.debug_ranges
 *(.debug_ranges)

.debug_aranges    0x000000        0x150
 *(.debug_aranges)
 .debug_aranges
                  0x000000         0x18 build/default/production/000_Main.o
 .debug_aranges
                  0x000018         0x18 build/default/production/001_Tick_10ms.o
 .debug_aranges
                  0x000030         0x18 build/default/production/002_CLRC663.o
 .debug_aranges
                  0x000048         0x18 build/default/production/003_BG96.o
 .debug_aranges
                  0x000060         0x18 build/default/production/004_LB1938.o
 .debug_aranges
                  0x000078         0x18 build/default/production/005_BNO055.o
 .debug_aranges
                  0x000090         0x18 build/default/production/006_Gpio.o
 .debug_aranges
                  0x0000a8         0x18 build/default/production/007_Uart.o
 .debug_aranges
                  0x0000c0         0x18 build/default/production/008_RingBuffer.o
 .debug_aranges
                  0x0000d8         0x18 build/default/production/009_System.o
 .debug_aranges
                  0x0000f0         0x18 build/default/production/012_CLRC663_NFC.o
 .debug_aranges
                  0x000108         0x18 build/default/production/011_Spi.o
 .debug_aranges
                  0x000120         0x18 build/default/production/013_Protocol.o
 .debug_aranges
                  0x000138         0x18 build/default/production/014_md5.o
                    0x0000                  WREG0 = 0x0
                    0x0000                  _WREG0 = 0x0
                    0x0002                  WREG1 = 0x2
                    0x0002                  _WREG1 = 0x2
                    0x0004                  WREG2 = 0x4
                    0x0004                  _WREG2 = 0x4
                    0x0006                  WREG3 = 0x6
                    0x0006                  _WREG3 = 0x6
                    0x0008                  WREG4 = 0x8
                    0x0008                  _WREG4 = 0x8
                    0x000a                  WREG5 = 0xa
                    0x000a                  _WREG5 = 0xa
                    0x000c                  WREG6 = 0xc
                    0x000c                  _WREG6 = 0xc
                    0x000e                  WREG7 = 0xe
                    0x000e                  _WREG7 = 0xe
                    0x0010                  WREG8 = 0x10
                    0x0010                  _WREG8 = 0x10
                    0x0012                  WREG9 = 0x12
                    0x0012                  _WREG9 = 0x12
                    0x0014                  WREG10 = 0x14
                    0x0014                  _WREG10 = 0x14
                    0x0016                  WREG11 = 0x16
                    0x0016                  _WREG11 = 0x16
                    0x0018                  WREG12 = 0x18
                    0x0018                  _WREG12 = 0x18
                    0x001a                  WREG13 = 0x1a
                    0x001a                  _WREG13 = 0x1a
                    0x001c                  WREG14 = 0x1c
                    0x001c                  _WREG14 = 0x1c
                    0x001e                  WREG15 = 0x1e
                    0x001e                  _WREG15 = 0x1e
                    0x0020                  SPLIM = 0x20
                    0x0020                  _SPLIM = 0x20
                    0x002e                  PCL = 0x2e
                    0x002e                  _PCL = 0x2e
                    0x0030                  PCH = 0x30
                    0x0030                  _PCH = 0x30
                    0x0032                  DSRPAG = 0x32
                    0x0032                  _DSRPAG = 0x32
                    0x0032                  _DSRPAGbits = 0x32
                    0x0034                  DSWPAG = 0x34
                    0x0034                  _DSWPAG = 0x34
                    0x0034                  _DSWPAGbits = 0x34
                    0x0036                  RCOUNT = 0x36
                    0x0036                  _RCOUNT = 0x36
                    0x0042                  SR = 0x42
                    0x0042                  _SR = 0x42
                    0x0042                  _SRbits = 0x42
                    0x0044                  CORCON = 0x44
                    0x0044                  _CORCON = 0x44
                    0x0044                  _CORCONbits = 0x44
                    0x0052                  DISICNT = 0x52
                    0x0052                  _DISICNT = 0x52
                    0x0052                  _DISICNTbits = 0x52
                    0x0054                  TBLPAG = 0x54
                    0x0054                  _TBLPAG = 0x54
                    0x0054                  _TBLPAGbits = 0x54
                    0x0080                  INTCON1 = 0x80
                    0x0080                  _INTCON1 = 0x80
                    0x0080                  _INTCON1bits = 0x80
                    0x0082                  INTCON2 = 0x82
                    0x0082                  _INTCON2 = 0x82
                    0x0082                  _INTCON2bits = 0x82
                    0x0086                  INTCON4 = 0x86
                    0x0086                  _INTCON4 = 0x86
                    0x0086                  _INTCON4bits = 0x86
                    0x0088                  IFS0 = 0x88
                    0x0088                  _IFS0 = 0x88
                    0x0088                  _IFS0bits = 0x88
                    0x008a                  IFS1 = 0x8a
                    0x008a                  _IFS1 = 0x8a
                    0x008a                  _IFS1bits = 0x8a
                    0x008c                  IFS2 = 0x8c
                    0x008c                  _IFS2 = 0x8c
                    0x008c                  _IFS2bits = 0x8c
                    0x008e                  IFS3 = 0x8e
                    0x008e                  _IFS3 = 0x8e
                    0x008e                  _IFS3bits = 0x8e
                    0x0090                  IFS4 = 0x90
                    0x0090                  _IFS4 = 0x90
                    0x0090                  _IFS4bits = 0x90
                    0x0092                  IFS5 = 0x92
                    0x0092                  _IFS5 = 0x92
                    0x0092                  _IFS5bits = 0x92
                    0x0094                  IFS6 = 0x94
                    0x0094                  _IFS6 = 0x94
                    0x0094                  _IFS6bits = 0x94
                    0x0096                  IFS7 = 0x96
                    0x0096                  _IFS7 = 0x96
                    0x0096                  _IFS7bits = 0x96
                    0x0098                  IEC0 = 0x98
                    0x0098                  _IEC0 = 0x98
                    0x0098                  _IEC0bits = 0x98
                    0x009a                  IEC1 = 0x9a
                    0x009a                  _IEC1 = 0x9a
                    0x009a                  _IEC1bits = 0x9a
                    0x009c                  IEC2 = 0x9c
                    0x009c                  _IEC2 = 0x9c
                    0x009c                  _IEC2bits = 0x9c
                    0x009e                  IEC3 = 0x9e
                    0x009e                  _IEC3 = 0x9e
                    0x009e                  _IEC3bits = 0x9e
                    0x00a0                  IEC4 = 0xa0
                    0x00a0                  _IEC4 = 0xa0
                    0x00a0                  _IEC4bits = 0xa0
                    0x00a2                  IEC5 = 0xa2
                    0x00a2                  _IEC5 = 0xa2
                    0x00a2                  _IEC5bits = 0xa2
                    0x00a4                  IEC6 = 0xa4
                    0x00a4                  _IEC6 = 0xa4
                    0x00a4                  _IEC6bits = 0xa4
                    0x00a6                  IEC7 = 0xa6
                    0x00a6                  _IEC7 = 0xa6
                    0x00a6                  _IEC7bits = 0xa6
                    0x00a8                  IPC0 = 0xa8
                    0x00a8                  _IPC0 = 0xa8
                    0x00a8                  _IPC0bits = 0xa8
                    0x00aa                  IPC1 = 0xaa
                    0x00aa                  _IPC1 = 0xaa
                    0x00aa                  _IPC1bits = 0xaa
                    0x00ac                  IPC2 = 0xac
                    0x00ac                  _IPC2 = 0xac
                    0x00ac                  _IPC2bits = 0xac
                    0x00ae                  IPC3 = 0xae
                    0x00ae                  _IPC3 = 0xae
                    0x00ae                  _IPC3bits = 0xae
                    0x00b0                  IPC4 = 0xb0
                    0x00b0                  _IPC4 = 0xb0
                    0x00b0                  _IPC4bits = 0xb0
                    0x00b2                  IPC5 = 0xb2
                    0x00b2                  _IPC5 = 0xb2
                    0x00b2                  _IPC5bits = 0xb2
                    0x00b4                  IPC6 = 0xb4
                    0x00b4                  _IPC6 = 0xb4
                    0x00b4                  _IPC6bits = 0xb4
                    0x00b6                  IPC7 = 0xb6
                    0x00b6                  _IPC7 = 0xb6
                    0x00b6                  _IPC7bits = 0xb6
                    0x00b8                  IPC8 = 0xb8
                    0x00b8                  _IPC8 = 0xb8
                    0x00b8                  _IPC8bits = 0xb8
                    0x00ba                  IPC9 = 0xba
                    0x00ba                  _IPC9 = 0xba
                    0x00ba                  _IPC9bits = 0xba
                    0x00bc                  IPC10 = 0xbc
                    0x00bc                  _IPC10 = 0xbc
                    0x00bc                  _IPC10bits = 0xbc
                    0x00be                  IPC11 = 0xbe
                    0x00be                  _IPC11 = 0xbe
                    0x00be                  _IPC11bits = 0xbe
                    0x00c0                  IPC12 = 0xc0
                    0x00c0                  _IPC12 = 0xc0
                    0x00c0                  _IPC12bits = 0xc0
                    0x00c2                  IPC13 = 0xc2
                    0x00c2                  _IPC13 = 0xc2
                    0x00c2                  _IPC13bits = 0xc2
                    0x00c4                  IPC14 = 0xc4
                    0x00c4                  _IPC14 = 0xc4
                    0x00c4                  _IPC14bits = 0xc4
                    0x00c6                  IPC15 = 0xc6
                    0x00c6                  _IPC15 = 0xc6
                    0x00c6                  _IPC15bits = 0xc6
                    0x00c8                  IPC16 = 0xc8
                    0x00c8                  _IPC16 = 0xc8
                    0x00c8                  _IPC16bits = 0xc8
                    0x00ca                  IPC17 = 0xca
                    0x00ca                  _IPC17 = 0xca
                    0x00ca                  _IPC17bits = 0xca
                    0x00cc                  IPC18 = 0xcc
                    0x00cc                  _IPC18 = 0xcc
                    0x00cc                  _IPC18bits = 0xcc
                    0x00ce                  IPC19 = 0xce
                    0x00ce                  _IPC19 = 0xce
                    0x00ce                  _IPC19bits = 0xce
                    0x00d0                  IPC20 = 0xd0
                    0x00d0                  _IPC20 = 0xd0
                    0x00d0                  _IPC20bits = 0xd0
                    0x00d2                  IPC21 = 0xd2
                    0x00d2                  _IPC21 = 0xd2
                    0x00d2                  _IPC21bits = 0xd2
                    0x00d4                  IPC22 = 0xd4
                    0x00d4                  _IPC22 = 0xd4
                    0x00d4                  _IPC22bits = 0xd4
                    0x00d6                  IPC23 = 0xd6
                    0x00d6                  _IPC23 = 0xd6
                    0x00d6                  _IPC23bits = 0xd6
                    0x00d8                  IPC24 = 0xd8
                    0x00d8                  _IPC24 = 0xd8
                    0x00d8                  _IPC24bits = 0xd8
                    0x00da                  IPC25 = 0xda
                    0x00da                  _IPC25 = 0xda
                    0x00da                  _IPC25bits = 0xda
                    0x00dc                  IPC26 = 0xdc
                    0x00dc                  _IPC26 = 0xdc
                    0x00dc                  _IPC26bits = 0xdc
                    0x00de                  IPC27 = 0xde
                    0x00de                  _IPC27 = 0xde
                    0x00de                  _IPC27bits = 0xde
                    0x00e0                  IPC28 = 0xe0
                    0x00e0                  _IPC28 = 0xe0
                    0x00e0                  _IPC28bits = 0xe0
                    0x00e2                  IPC29 = 0xe2
                    0x00e2                  _IPC29 = 0xe2
                    0x00e2                  _IPC29bits = 0xe2
                    0x00e4                  INTTREG = 0xe4
                    0x00e4                  _INTTREG = 0xe4
                    0x00e4                  _INTTREGbits = 0xe4
                    0x0100                  OSCCON = 0x100
                    0x0100                  _OSCCON = 0x100
                    0x0100                  _OSCCONbits = 0x100
                    0x0100                  OSCCONL = 0x100
                    0x0100                  _OSCCONL = 0x100
                    0x0101                  OSCCONH = 0x101
                    0x0101                  _OSCCONH = 0x101
                    0x0102                  CLKDIV = 0x102
                    0x0102                  _CLKDIV = 0x102
                    0x0102                  _CLKDIVbits = 0x102
                    0x0106                  OSCTUN = 0x106
                    0x0106                  _OSCTUN = 0x106
                    0x0106                  _OSCTUNbits = 0x106
                    0x0108                  DCOTUN = 0x108
                    0x0108                  _DCOTUN = 0x108
                    0x0108                  _DCOTUNbits = 0x108
                    0x010a                  DCOCON = 0x10a
                    0x010a                  _DCOCON = 0x10a
                    0x010a                  _DCOCONbits = 0x10a
                    0x010c                  OSCDIV = 0x10c
                    0x010c                  _OSCDIV = 0x10c
                    0x010c                  _OSCDIVbits = 0x10c
                    0x010e                  OSCFDIV = 0x10e
                    0x010e                  _OSCFDIV = 0x10e
                    0x010e                  _OSCFDIVbits = 0x10e
                    0x0110                  RCON = 0x110
                    0x0110                  _RCON = 0x110
                    0x0110                  _RCONbits = 0x110
                    0x0114                  HLVDCON = 0x114
                    0x0114                  _HLVDCON = 0x114
                    0x0114                  _HLVDCONbits = 0x114
                    0x0128                  PMCON1 = 0x128
                    0x0128                  _PMCON1 = 0x128
                    0x0128                  _PMCON1bits = 0x128
                    0x012a                  PMCON2 = 0x12a
                    0x012a                  _PMCON2 = 0x12a
                    0x012a                  _PMCON2bits = 0x12a
                    0x012c                  PMCON3 = 0x12c
                    0x012c                  _PMCON3 = 0x12c
                    0x012c                  _PMCON3bits = 0x12c
                    0x012e                  PMCON4 = 0x12e
                    0x012e                  _PMCON4 = 0x12e
                    0x012e                  _PMCON4bits = 0x12e
                    0x0130                  PMCS1CF = 0x130
                    0x0130                  _PMCS1CF = 0x130
                    0x0130                  _PMCS1CFbits = 0x130
                    0x0132                  PMCS1BS = 0x132
                    0x0132                  _PMCS1BS = 0x132
                    0x0132                  _PMCS1BSbits = 0x132
                    0x0134                  PMCS1MD = 0x134
                    0x0134                  _PMCS1MD = 0x134
                    0x0134                  _PMCS1MDbits = 0x134
                    0x0136                  PMCS2CF = 0x136
                    0x0136                  _PMCS2CF = 0x136
                    0x0136                  _PMCS2CFbits = 0x136
                    0x0138                  PMCS2BS = 0x138
                    0x0138                  _PMCS2BS = 0x138
                    0x0138                  _PMCS2BSbits = 0x138
                    0x013a                  PMCS2MD = 0x13a
                    0x013a                  _PMCS2MD = 0x13a
                    0x013a                  _PMCS2MDbits = 0x13a
                    0x013c                  PMDOUT1 = 0x13c
                    0x013c                  _PMDOUT1 = 0x13c
                    0x013e                  PMDOUT2 = 0x13e
                    0x013e                  _PMDOUT2 = 0x13e
                    0x0140                  PMDIN1 = 0x140
                    0x0140                  _PMDIN1 = 0x140
                    0x0142                  PMDIN2 = 0x142
                    0x0142                  _PMDIN2 = 0x142
                    0x0144                  PMSTAT = 0x144
                    0x0144                  _PMSTAT = 0x144
                    0x0144                  _PMSTATbits = 0x144
                    0x0158                  CRCCON1 = 0x158
                    0x0158                  _CRCCON1 = 0x158
                    0x0158                  _CRCCON1bits = 0x158
                    0x015a                  CRCCON2 = 0x15a
                    0x015a                  _CRCCON2 = 0x15a
                    0x015a                  _CRCCON2bits = 0x15a
                    0x015c                  CRCXORL = 0x15c
                    0x015c                  _CRCXORL = 0x15c
                    0x015c                  _CRCXORLbits = 0x15c
                    0x015e                  CRCXORH = 0x15e
                    0x015e                  _CRCXORH = 0x15e
                    0x015e                  _CRCXORHbits = 0x15e
                    0x0160                  CRCDAT = 0x160
                    0x0160                  _CRCDAT = 0x160
                    0x0160                  CRCDATL = 0x160
                    0x0160                  _CRCDATL = 0x160
                    0x0162                  CRCDATH = 0x162
                    0x0162                  _CRCDATH = 0x162
                    0x0164                  CRCWDAT = 0x164
                    0x0164                  _CRCWDAT = 0x164
                    0x0164                  CRCWDATL = 0x164
                    0x0164                  _CRCWDATL = 0x164
                    0x0166                  CRCWDATH = 0x166
                    0x0166                  _CRCWDATH = 0x166
                    0x0168                  REFOCON1 = 0x168
                    0x0168                  _REFOCON1 = 0x168
                    0x0168                  _REFOCON1bits = 0x168
                    0x0168                  REFOCONL = 0x168
                    0x0168                  _REFOCONL = 0x168
                    0x0168                  _REFOCONLbits = 0x168
                    0x016a                  REFOCON2 = 0x16a
                    0x016a                  _REFOCON2 = 0x16a
                    0x016a                  _REFOCON2bits = 0x16a
                    0x016a                  REFOCONH = 0x16a
                    0x016a                  _REFOCONH = 0x16a
                    0x016a                  _REFOCONHbits = 0x16a
                    0x0178                  PMD1 = 0x178
                    0x0178                  _PMD1 = 0x178
                    0x0178                  _PMD1bits = 0x178
                    0x017a                  PMD2 = 0x17a
                    0x017a                  _PMD2 = 0x17a
                    0x017a                  _PMD2bits = 0x17a
                    0x017c                  PMD3 = 0x17c
                    0x017c                  _PMD3 = 0x17c
                    0x017c                  _PMD3bits = 0x17c
                    0x017e                  PMD4 = 0x17e
                    0x017e                  _PMD4 = 0x17e
                    0x017e                  _PMD4bits = 0x17e
                    0x0180                  PMD5 = 0x180
                    0x0180                  _PMD5 = 0x180
                    0x0180                  _PMD5bits = 0x180
                    0x0182                  PMD6 = 0x182
                    0x0182                  _PMD6 = 0x182
                    0x0182                  _PMD6bits = 0x182
                    0x0184                  PMD7 = 0x184
                    0x0184                  _PMD7 = 0x184
                    0x0184                  _PMD7bits = 0x184
                    0x0186                  PMD8 = 0x186
                    0x0186                  _PMD8 = 0x186
                    0x0186                  _PMD8bits = 0x186
                    0x0190                  TMR1 = 0x190
                    0x0190                  _TMR1 = 0x190
                    0x0192                  PR1 = 0x192
                    0x0192                  _PR1 = 0x192
                    0x0194                  T1CON = 0x194
                    0x0194                  _T1CON = 0x194
                    0x0194                  _T1CONbits = 0x194
                    0x0196                  TMR2 = 0x196
                    0x0196                  _TMR2 = 0x196
                    0x0198                  TMR3HLD = 0x198
                    0x0198                  _TMR3HLD = 0x198
                    0x019a                  TMR3 = 0x19a
                    0x019a                  _TMR3 = 0x19a
                    0x019c                  PR2 = 0x19c
                    0x019c                  _PR2 = 0x19c
                    0x019e                  PR3 = 0x19e
                    0x019e                  _PR3 = 0x19e
                    0x01a0                  T2CON = 0x1a0
                    0x01a0                  _T2CON = 0x1a0
                    0x01a0                  _T2CONbits = 0x1a0
                    0x01a2                  T3CON = 0x1a2
                    0x01a2                  _T3CON = 0x1a2
                    0x01a2                  _T3CONbits = 0x1a2
                    0x01a4                  TMR4 = 0x1a4
                    0x01a4                  _TMR4 = 0x1a4
                    0x01a6                  TMR5HLD = 0x1a6
                    0x01a6                  _TMR5HLD = 0x1a6
                    0x01a8                  TMR5 = 0x1a8
                    0x01a8                  _TMR5 = 0x1a8
                    0x01aa                  PR4 = 0x1aa
                    0x01aa                  _PR4 = 0x1aa
                    0x01ac                  PR5 = 0x1ac
                    0x01ac                  _PR5 = 0x1ac
                    0x01ae                  T4CON = 0x1ae
                    0x01ae                  _T4CON = 0x1ae
                    0x01ae                  _T4CONbits = 0x1ae
                    0x01b0                  T5CON = 0x1b0
                    0x01b0                  _T5CON = 0x1b0
                    0x01b0                  _T5CONbits = 0x1b0
                    0x01c0                  CTMUCON1L = 0x1c0
                    0x01c0                  _CTMUCON1L = 0x1c0
                    0x01c0                  _CTMUCON1Lbits = 0x1c0
                    0x01c2                  CTMUCON1H = 0x1c2
                    0x01c2                  _CTMUCON1H = 0x1c2
                    0x01c2                  _CTMUCON1Hbits = 0x1c2
                    0x01c4                  CTMUCON2L = 0x1c4
                    0x01c4                  _CTMUCON2L = 0x1c4
                    0x01c4                  _CTMUCON2Lbits = 0x1c4
                    0x01cc                  RTCCON1L = 0x1cc
                    0x01cc                  _RTCCON1L = 0x1cc
                    0x01cc                  _RTCCON1Lbits = 0x1cc
                    0x01ce                  RTCCON1H = 0x1ce
                    0x01ce                  _RTCCON1H = 0x1ce
                    0x01ce                  _RTCCON1Hbits = 0x1ce
                    0x01d0                  RTCCON2L = 0x1d0
                    0x01d0                  _RTCCON2L = 0x1d0
                    0x01d0                  _RTCCON2Lbits = 0x1d0
                    0x01d2                  RTCCON2H = 0x1d2
                    0x01d2                  _RTCCON2H = 0x1d2
                    0x01d4                  RTCCON3L = 0x1d4
                    0x01d4                  _RTCCON3L = 0x1d4
                    0x01d4                  _RTCCON3Lbits = 0x1d4
                    0x01d8                  RTCSTATL = 0x1d8
                    0x01d8                  _RTCSTATL = 0x1d8
                    0x01d8                  _RTCSTATLbits = 0x1d8
                    0x01dc                  TIMEL = 0x1dc
                    0x01dc                  _TIMEL = 0x1dc
                    0x01dc                  _TIMELbits = 0x1dc
                    0x01de                  TIMEH = 0x1de
                    0x01de                  _TIMEH = 0x1de
                    0x01de                  _TIMEHbits = 0x1de
                    0x01e0                  DATEL = 0x1e0
                    0x01e0                  _DATEL = 0x1e0
                    0x01e0                  _DATELbits = 0x1e0
                    0x01e2                  DATEH = 0x1e2
                    0x01e2                  _DATEH = 0x1e2
                    0x01e2                  _DATEHbits = 0x1e2
                    0x01e4                  ALMTIMEL = 0x1e4
                    0x01e4                  _ALMTIMEL = 0x1e4
                    0x01e4                  _ALMTIMELbits = 0x1e4
                    0x01e6                  ALMTIMEH = 0x1e6
                    0x01e6                  _ALMTIMEH = 0x1e6
                    0x01e6                  _ALMTIMEHbits = 0x1e6
                    0x01e8                  ALMDATEL = 0x1e8
                    0x01e8                  _ALMDATEL = 0x1e8
                    0x01e8                  _ALMDATELbits = 0x1e8
                    0x01ea                  ALMDATEH = 0x1ea
                    0x01ea                  _ALMDATEH = 0x1ea
                    0x01ea                  _ALMDATEHbits = 0x1ea
                    0x01ec                  TSATIMEL = 0x1ec
                    0x01ec                  _TSATIMEL = 0x1ec
                    0x01ec                  _TSATIMELbits = 0x1ec
                    0x01ee                  TSATIMEH = 0x1ee
                    0x01ee                  _TSATIMEH = 0x1ee
                    0x01ee                  _TSATIMEHbits = 0x1ee
                    0x01f0                  TSADATEL = 0x1f0
                    0x01f0                  _TSADATEL = 0x1f0
                    0x01f0                  _TSADATELbits = 0x1f0
                    0x01f2                  TSADATEH = 0x1f2
                    0x01f2                  _TSADATEH = 0x1f2
                    0x01f2                  _TSADATEHbits = 0x1f2
                    0x0200                  IC1CON1 = 0x200
                    0x0200                  _IC1CON1 = 0x200
                    0x0200                  _IC1CON1bits = 0x200
                    0x0202                  IC1CON2 = 0x202
                    0x0202                  _IC1CON2 = 0x202
                    0x0202                  _IC1CON2bits = 0x202
                    0x0204                  IC1BUF = 0x204
                    0x0204                  _IC1BUF = 0x204
                    0x0206                  IC1TMR = 0x206
                    0x0206                  _IC1TMR = 0x206
                    0x0208                  IC2CON1 = 0x208
                    0x0208                  _IC2CON1 = 0x208
                    0x0208                  _IC2CON1bits = 0x208
                    0x020a                  IC2CON2 = 0x20a
                    0x020a                  _IC2CON2 = 0x20a
                    0x020a                  _IC2CON2bits = 0x20a
                    0x020c                  IC2BUF = 0x20c
                    0x020c                  _IC2BUF = 0x20c
                    0x020e                  IC2TMR = 0x20e
                    0x020e                  _IC2TMR = 0x20e
                    0x0210                  IC3CON1 = 0x210
                    0x0210                  _IC3CON1 = 0x210
                    0x0210                  _IC3CON1bits = 0x210
                    0x0212                  IC3CON2 = 0x212
                    0x0212                  _IC3CON2 = 0x212
                    0x0212                  _IC3CON2bits = 0x212
                    0x0214                  IC3BUF = 0x214
                    0x0214                  _IC3BUF = 0x214
                    0x0216                  IC3TMR = 0x216
                    0x0216                  _IC3TMR = 0x216
                    0x0218                  IC4CON1 = 0x218
                    0x0218                  _IC4CON1 = 0x218
                    0x0218                  _IC4CON1bits = 0x218
                    0x021a                  IC4CON2 = 0x21a
                    0x021a                  _IC4CON2 = 0x21a
                    0x021a                  _IC4CON2bits = 0x21a
                    0x021c                  IC4BUF = 0x21c
                    0x021c                  _IC4BUF = 0x21c
                    0x021e                  IC4TMR = 0x21e
                    0x021e                  _IC4TMR = 0x21e
                    0x0220                  IC5CON1 = 0x220
                    0x0220                  _IC5CON1 = 0x220
                    0x0220                  _IC5CON1bits = 0x220
                    0x0222                  IC5CON2 = 0x222
                    0x0222                  _IC5CON2 = 0x222
                    0x0222                  _IC5CON2bits = 0x222
                    0x0224                  IC5BUF = 0x224
                    0x0224                  _IC5BUF = 0x224
                    0x0226                  IC5TMR = 0x226
                    0x0226                  _IC5TMR = 0x226
                    0x0228                  IC6CON1 = 0x228
                    0x0228                  _IC6CON1 = 0x228
                    0x0228                  _IC6CON1bits = 0x228
                    0x022a                  IC6CON2 = 0x22a
                    0x022a                  _IC6CON2 = 0x22a
                    0x022a                  _IC6CON2bits = 0x22a
                    0x022c                  IC6BUF = 0x22c
                    0x022c                  _IC6BUF = 0x22c
                    0x022e                  IC6TMR = 0x22e
                    0x022e                  _IC6TMR = 0x22e
                    0x0230                  OC1CON1 = 0x230
                    0x0230                  _OC1CON1 = 0x230
                    0x0230                  _OC1CON1bits = 0x230
                    0x0232                  OC1CON2 = 0x232
                    0x0232                  _OC1CON2 = 0x232
                    0x0232                  _OC1CON2bits = 0x232
                    0x0234                  OC1RS = 0x234
                    0x0234                  _OC1RS = 0x234
                    0x0236                  OC1R = 0x236
                    0x0236                  _OC1R = 0x236
                    0x0238                  OC1TMR = 0x238
                    0x0238                  _OC1TMR = 0x238
                    0x023a                  OC2CON1 = 0x23a
                    0x023a                  _OC2CON1 = 0x23a
                    0x023a                  _OC2CON1bits = 0x23a
                    0x023c                  OC2CON2 = 0x23c
                    0x023c                  _OC2CON2 = 0x23c
                    0x023c                  _OC2CON2bits = 0x23c
                    0x023e                  OC2RS = 0x23e
                    0x023e                  _OC2RS = 0x23e
                    0x0240                  OC2R = 0x240
                    0x0240                  _OC2R = 0x240
                    0x0242                  OC2TMR = 0x242
                    0x0242                  _OC2TMR = 0x242
                    0x0244                  OC3CON1 = 0x244
                    0x0244                  _OC3CON1 = 0x244
                    0x0244                  _OC3CON1bits = 0x244
                    0x0246                  OC3CON2 = 0x246
                    0x0246                  _OC3CON2 = 0x246
                    0x0246                  _OC3CON2bits = 0x246
                    0x0248                  OC3RS = 0x248
                    0x0248                  _OC3RS = 0x248
                    0x024a                  OC3R = 0x24a
                    0x024a                  _OC3R = 0x24a
                    0x024c                  OC3TMR = 0x24c
                    0x024c                  _OC3TMR = 0x24c
                    0x024e                  OC4CON1 = 0x24e
                    0x024e                  _OC4CON1 = 0x24e
                    0x024e                  _OC4CON1bits = 0x24e
                    0x0250                  OC4CON2 = 0x250
                    0x0250                  _OC4CON2 = 0x250
                    0x0250                  _OC4CON2bits = 0x250
                    0x0252                  OC4RS = 0x252
                    0x0252                  _OC4RS = 0x252
                    0x0254                  OC4R = 0x254
                    0x0254                  _OC4R = 0x254
                    0x0256                  OC4TMR = 0x256
                    0x0256                  _OC4TMR = 0x256
                    0x0258                  OC5CON1 = 0x258
                    0x0258                  _OC5CON1 = 0x258
                    0x0258                  _OC5CON1bits = 0x258
                    0x025a                  OC5CON2 = 0x25a
                    0x025a                  _OC5CON2 = 0x25a
                    0x025a                  _OC5CON2bits = 0x25a
                    0x025c                  OC5RS = 0x25c
                    0x025c                  _OC5RS = 0x25c
                    0x025e                  OC5R = 0x25e
                    0x025e                  _OC5R = 0x25e
                    0x0260                  OC5TMR = 0x260
                    0x0260                  _OC5TMR = 0x260
                    0x0262                  OC6CON1 = 0x262
                    0x0262                  _OC6CON1 = 0x262
                    0x0262                  _OC6CON1bits = 0x262
                    0x0264                  OC6CON2 = 0x264
                    0x0264                  _OC6CON2 = 0x264
                    0x0264                  _OC6CON2bits = 0x264
                    0x0266                  OC6RS = 0x266
                    0x0266                  _OC6RS = 0x266
                    0x0268                  OC6R = 0x268
                    0x0268                  _OC6R = 0x268
                    0x026a                  OC6TMR = 0x26a
                    0x026a                  _OC6TMR = 0x26a
                    0x026c                  CCP1CON1L = 0x26c
                    0x026c                  _CCP1CON1L = 0x26c
                    0x026c                  _CCP1CON1Lbits = 0x26c
                    0x026e                  CCP1CON1H = 0x26e
                    0x026e                  _CCP1CON1H = 0x26e
                    0x026e                  _CCP1CON1Hbits = 0x26e
                    0x0270                  CCP1CON2L = 0x270
                    0x0270                  _CCP1CON2L = 0x270
                    0x0270                  _CCP1CON2Lbits = 0x270
                    0x0272                  CCP1CON2H = 0x272
                    0x0272                  _CCP1CON2H = 0x272
                    0x0272                  _CCP1CON2Hbits = 0x272
                    0x0274                  CCP1CON3L = 0x274
                    0x0274                  _CCP1CON3L = 0x274
                    0x0274                  _CCP1CON3Lbits = 0x274
                    0x0276                  CCP1CON3H = 0x276
                    0x0276                  _CCP1CON3H = 0x276
                    0x0276                  _CCP1CON3Hbits = 0x276
                    0x0278                  CCP1STAT = 0x278
                    0x0278                  _CCP1STAT = 0x278
                    0x0278                  _CCP1STATbits = 0x278
                    0x0278                  CCP1STATL = 0x278
                    0x0278                  _CCP1STATL = 0x278
                    0x0278                  _CCP1STATLbits = 0x278
                    0x027a                  CCP1STATH = 0x27a
                    0x027a                  _CCP1STATH = 0x27a
                    0x027a                  _CCP1STATHbits = 0x27a
                    0x027c                  CCP1TMRL = 0x27c
                    0x027c                  _CCP1TMRL = 0x27c
                    0x027e                  CCP1TMRH = 0x27e
                    0x027e                  _CCP1TMRH = 0x27e
                    0x0280                  CCP1PRL = 0x280
                    0x0280                  _CCP1PRL = 0x280
                    0x0282                  CCP1PRH = 0x282
                    0x0282                  _CCP1PRH = 0x282
                    0x0284                  CCP1RA = 0x284
                    0x0284                  _CCP1RA = 0x284
                    0x0284                  CCP1RAL = 0x284
                    0x0284                  _CCP1RAL = 0x284
                    0x0286                  CCP1RAH = 0x286
                    0x0286                  _CCP1RAH = 0x286
                    0x0288                  CCP1RB = 0x288
                    0x0288                  _CCP1RB = 0x288
                    0x0288                  CCP1RBL = 0x288
                    0x0288                  _CCP1RBL = 0x288
                    0x028a                  CCP1RBH = 0x28a
                    0x028a                  _CCP1RBH = 0x28a
                    0x028c                  CCP1BUFL = 0x28c
                    0x028c                  _CCP1BUFL = 0x28c
                    0x028e                  CCP1BUFH = 0x28e
                    0x028e                  _CCP1BUFH = 0x28e
                    0x0290                  CCP2CON1L = 0x290
                    0x0290                  _CCP2CON1L = 0x290
                    0x0290                  _CCP2CON1Lbits = 0x290
                    0x0292                  CCP2CON1H = 0x292
                    0x0292                  _CCP2CON1H = 0x292
                    0x0292                  _CCP2CON1Hbits = 0x292
                    0x0294                  CCP2CON2L = 0x294
                    0x0294                  _CCP2CON2L = 0x294
                    0x0294                  _CCP2CON2Lbits = 0x294
                    0x0296                  CCP2CON2H = 0x296
                    0x0296                  _CCP2CON2H = 0x296
                    0x0296                  _CCP2CON2Hbits = 0x296
                    0x0298                  CCP2CON3L = 0x298
                    0x0298                  _CCP2CON3L = 0x298
                    0x0298                  _CCP2CON3Lbits = 0x298
                    0x029a                  CCP2CON3H = 0x29a
                    0x029a                  _CCP2CON3H = 0x29a
                    0x029a                  _CCP2CON3Hbits = 0x29a
                    0x029c                  CCP2STAT = 0x29c
                    0x029c                  _CCP2STAT = 0x29c
                    0x029c                  _CCP2STATbits = 0x29c
                    0x029c                  CCP2STATL = 0x29c
                    0x029c                  _CCP2STATL = 0x29c
                    0x029c                  _CCP2STATLbits = 0x29c
                    0x029e                  CCP2STATH = 0x29e
                    0x029e                  _CCP2STATH = 0x29e
                    0x029e                  _CCP2STATHbits = 0x29e
                    0x02a0                  CCP2TMRL = 0x2a0
                    0x02a0                  _CCP2TMRL = 0x2a0
                    0x02a2                  CCP2TMRH = 0x2a2
                    0x02a2                  _CCP2TMRH = 0x2a2
                    0x02a4                  CCP2PRL = 0x2a4
                    0x02a4                  _CCP2PRL = 0x2a4
                    0x02a6                  CCP2PRH = 0x2a6
                    0x02a6                  _CCP2PRH = 0x2a6
                    0x02a8                  CCP2RA = 0x2a8
                    0x02a8                  _CCP2RA = 0x2a8
                    0x02a8                  CCP2RAL = 0x2a8
                    0x02a8                  _CCP2RAL = 0x2a8
                    0x02aa                  CCP2RAH = 0x2aa
                    0x02aa                  _CCP2RAH = 0x2aa
                    0x02ac                  CCP2RB = 0x2ac
                    0x02ac                  _CCP2RB = 0x2ac
                    0x02ac                  CCP2RBL = 0x2ac
                    0x02ac                  _CCP2RBL = 0x2ac
                    0x02ae                  CCP2RBH = 0x2ae
                    0x02ae                  _CCP2RBH = 0x2ae
                    0x02b0                  CCP2BUFL = 0x2b0
                    0x02b0                  _CCP2BUFL = 0x2b0
                    0x02b2                  CCP2BUFH = 0x2b2
                    0x02b2                  _CCP2BUFH = 0x2b2
                    0x02b4                  CCP3CON1L = 0x2b4
                    0x02b4                  _CCP3CON1L = 0x2b4
                    0x02b4                  _CCP3CON1Lbits = 0x2b4
                    0x02b6                  CCP3CON1H = 0x2b6
                    0x02b6                  _CCP3CON1H = 0x2b6
                    0x02b6                  _CCP3CON1Hbits = 0x2b6
                    0x02b8                  CCP3CON2L = 0x2b8
                    0x02b8                  _CCP3CON2L = 0x2b8
                    0x02b8                  _CCP3CON2Lbits = 0x2b8
                    0x02ba                  CCP3CON2H = 0x2ba
                    0x02ba                  _CCP3CON2H = 0x2ba
                    0x02ba                  _CCP3CON2Hbits = 0x2ba
                    0x02bc                  CCP3CON3L = 0x2bc
                    0x02bc                  _CCP3CON3L = 0x2bc
                    0x02bc                  _CCP3CON3Lbits = 0x2bc
                    0x02be                  CCP3CON3H = 0x2be
                    0x02be                  _CCP3CON3H = 0x2be
                    0x02be                  _CCP3CON3Hbits = 0x2be
                    0x02c0                  CCP3STAT = 0x2c0
                    0x02c0                  _CCP3STAT = 0x2c0
                    0x02c0                  _CCP3STATbits = 0x2c0
                    0x02c0                  CCP3STATL = 0x2c0
                    0x02c0                  _CCP3STATL = 0x2c0
                    0x02c0                  _CCP3STATLbits = 0x2c0
                    0x02c2                  CCP3STATH = 0x2c2
                    0x02c2                  _CCP3STATH = 0x2c2
                    0x02c2                  _CCP3STATHbits = 0x2c2
                    0x02c4                  CCP3TMRL = 0x2c4
                    0x02c4                  _CCP3TMRL = 0x2c4
                    0x02c6                  CCP3TMRH = 0x2c6
                    0x02c6                  _CCP3TMRH = 0x2c6
                    0x02c8                  CCP3PRL = 0x2c8
                    0x02c8                  _CCP3PRL = 0x2c8
                    0x02ca                  CCP3PRH = 0x2ca
                    0x02ca                  _CCP3PRH = 0x2ca
                    0x02cc                  CCP3RA = 0x2cc
                    0x02cc                  _CCP3RA = 0x2cc
                    0x02cc                  CCP3RAL = 0x2cc
                    0x02cc                  _CCP3RAL = 0x2cc
                    0x02ce                  CCP3RAH = 0x2ce
                    0x02ce                  _CCP3RAH = 0x2ce
                    0x02d0                  CCP3RB = 0x2d0
                    0x02d0                  _CCP3RB = 0x2d0
                    0x02d0                  CCP3RBL = 0x2d0
                    0x02d0                  _CCP3RBL = 0x2d0
                    0x02d2                  CCP3RBH = 0x2d2
                    0x02d2                  _CCP3RBH = 0x2d2
                    0x02d4                  CCP3BUFL = 0x2d4
                    0x02d4                  _CCP3BUFL = 0x2d4
                    0x02d6                  CCP3BUFH = 0x2d6
                    0x02d6                  _CCP3BUFH = 0x2d6
                    0x02e6                  CMSTAT = 0x2e6
                    0x02e6                  _CMSTAT = 0x2e6
                    0x02e6                  _CMSTATbits = 0x2e6
                    0x02e8                  CVRCON = 0x2e8
                    0x02e8                  _CVRCON = 0x2e8
                    0x02e8                  _CVRCONbits = 0x2e8
                    0x02ea                  CM1CON = 0x2ea
                    0x02ea                  _CM1CON = 0x2ea
                    0x02ea                  _CM1CONbits = 0x2ea
                    0x02ec                  CM2CON = 0x2ec
                    0x02ec                  _CM2CON = 0x2ec
                    0x02ec                  _CM2CONbits = 0x2ec
                    0x02ee                  CM3CON = 0x2ee
                    0x02ee                  _CM3CON = 0x2ee
                    0x02ee                  _CM3CONbits = 0x2ee
                    0x02f4                  ANCFG = 0x2f4
                    0x02f4                  _ANCFG = 0x2f4
                    0x02f4                  _ANCFGbits = 0x2f4
                    0x0300                  CCP4CON1L = 0x300
                    0x0300                  _CCP4CON1L = 0x300
                    0x0300                  _CCP4CON1Lbits = 0x300
                    0x0302                  CCP4CON1H = 0x302
                    0x0302                  _CCP4CON1H = 0x302
                    0x0302                  _CCP4CON1Hbits = 0x302
                    0x0304                  CCP4CON2L = 0x304
                    0x0304                  _CCP4CON2L = 0x304
                    0x0304                  _CCP4CON2Lbits = 0x304
                    0x0306                  CCP4CON2H = 0x306
                    0x0306                  _CCP4CON2H = 0x306
                    0x0306                  _CCP4CON2Hbits = 0x306
                    0x0308                  CCP4CON3L = 0x308
                    0x0308                  _CCP4CON3L = 0x308
                    0x030a                  CCP4CON3H = 0x30a
                    0x030a                  _CCP4CON3H = 0x30a
                    0x030a                  _CCP4CON3Hbits = 0x30a
                    0x030c                  CCP4STAT = 0x30c
                    0x030c                  _CCP4STAT = 0x30c
                    0x030c                  _CCP4STATbits = 0x30c
                    0x030c                  CCP4STATL = 0x30c
                    0x030c                  _CCP4STATL = 0x30c
                    0x030c                  _CCP4STATLbits = 0x30c
                    0x030e                  CCP4STATH = 0x30e
                    0x030e                  _CCP4STATH = 0x30e
                    0x030e                  _CCP4STATHbits = 0x30e
                    0x0310                  CCP4TMRL = 0x310
                    0x0310                  _CCP4TMRL = 0x310
                    0x0312                  CCP4TMRH = 0x312
                    0x0312                  _CCP4TMRH = 0x312
                    0x0314                  CCP4PRL = 0x314
                    0x0314                  _CCP4PRL = 0x314
                    0x0316                  CCP4PRH = 0x316
                    0x0316                  _CCP4PRH = 0x316
                    0x0318                  CCP4RA = 0x318
                    0x0318                  _CCP4RA = 0x318
                    0x0318                  CCP4RAL = 0x318
                    0x0318                  _CCP4RAL = 0x318
                    0x031a                  CCP4RAH = 0x31a
                    0x031a                  _CCP4RAH = 0x31a
                    0x031c                  CCP4RB = 0x31c
                    0x031c                  _CCP4RB = 0x31c
                    0x031c                  CCP4RBL = 0x31c
                    0x031c                  _CCP4RBL = 0x31c
                    0x031e                  CCP4RBH = 0x31e
                    0x031e                  _CCP4RBH = 0x31e
                    0x0320                  CCP4BUFL = 0x320
                    0x0320                  _CCP4BUFL = 0x320
                    0x0322                  CCP4BUFH = 0x322
                    0x0322                  _CCP4BUFH = 0x322
                    0x0324                  CCP5CON1L = 0x324
                    0x0324                  _CCP5CON1L = 0x324
                    0x0324                  _CCP5CON1Lbits = 0x324
                    0x0326                  CCP5CON1H = 0x326
                    0x0326                  _CCP5CON1H = 0x326
                    0x0326                  _CCP5CON1Hbits = 0x326
                    0x0328                  CCP5CON2L = 0x328
                    0x0328                  _CCP5CON2L = 0x328
                    0x0328                  _CCP5CON2Lbits = 0x328
                    0x032a                  CCP5CON2H = 0x32a
                    0x032a                  _CCP5CON2H = 0x32a
                    0x032a                  _CCP5CON2Hbits = 0x32a
                    0x032c                  CCP5CON3L = 0x32c
                    0x032c                  _CCP5CON3L = 0x32c
                    0x032e                  CCP5CON3H = 0x32e
                    0x032e                  _CCP5CON3H = 0x32e
                    0x032e                  _CCP5CON3Hbits = 0x32e
                    0x0330                  CCP5STAT = 0x330
                    0x0330                  _CCP5STAT = 0x330
                    0x0330                  _CCP5STATbits = 0x330
                    0x0330                  CCP5STATL = 0x330
                    0x0330                  _CCP5STATL = 0x330
                    0x0330                  _CCP5STATLbits = 0x330
                    0x0332                  CCP5STATH = 0x332
                    0x0332                  _CCP5STATH = 0x332
                    0x0332                  _CCP5STATHbits = 0x332
                    0x0334                  CCP5TMRL = 0x334
                    0x0334                  _CCP5TMRL = 0x334
                    0x0336                  CCP5TMRH = 0x336
                    0x0336                  _CCP5TMRH = 0x336
                    0x0338                  CCP5PRL = 0x338
                    0x0338                  _CCP5PRL = 0x338
                    0x033a                  CCP5PRH = 0x33a
                    0x033a                  _CCP5PRH = 0x33a
                    0x033c                  CCP5RA = 0x33c
                    0x033c                  _CCP5RA = 0x33c
                    0x033c                  CCP5RAL = 0x33c
                    0x033c                  _CCP5RAL = 0x33c
                    0x033e                  CCP5RAH = 0x33e
                    0x033e                  _CCP5RAH = 0x33e
                    0x0340                  CCP5RB = 0x340
                    0x0340                  _CCP5RB = 0x340
                    0x0340                  CCP5RBL = 0x340
                    0x0340                  _CCP5RBL = 0x340
                    0x0342                  CCP5RBH = 0x342
                    0x0342                  _CCP5RBH = 0x342
                    0x0344                  CCP5BUFL = 0x344
                    0x0344                  _CCP5BUFL = 0x344
                    0x0346                  CCP5BUFH = 0x346
                    0x0346                  _CCP5BUFH = 0x346
                    0x0348                  CCP6CON1L = 0x348
                    0x0348                  _CCP6CON1L = 0x348
                    0x0348                  _CCP6CON1Lbits = 0x348
                    0x034a                  CCP6CON1H = 0x34a
                    0x034a                  _CCP6CON1H = 0x34a
                    0x034a                  _CCP6CON1Hbits = 0x34a
                    0x034c                  CCP6CON2L = 0x34c
                    0x034c                  _CCP6CON2L = 0x34c
                    0x034c                  _CCP6CON2Lbits = 0x34c
                    0x034e                  CCP6CON2H = 0x34e
                    0x034e                  _CCP6CON2H = 0x34e
                    0x034e                  _CCP6CON2Hbits = 0x34e
                    0x0350                  CCP6CON3L = 0x350
                    0x0350                  _CCP6CON3L = 0x350
                    0x0352                  CCP6CON3H = 0x352
                    0x0352                  _CCP6CON3H = 0x352
                    0x0352                  _CCP6CON3Hbits = 0x352
                    0x0354                  CCP6STAT = 0x354
                    0x0354                  _CCP6STAT = 0x354
                    0x0354                  _CCP6STATbits = 0x354
                    0x0354                  CCP6STATL = 0x354
                    0x0354                  _CCP6STATL = 0x354
                    0x0354                  _CCP6STATLbits = 0x354
                    0x0356                  CCP6STATH = 0x356
                    0x0356                  _CCP6STATH = 0x356
                    0x0356                  _CCP6STATHbits = 0x356
                    0x0358                  CCP6TMRL = 0x358
                    0x0358                  _CCP6TMRL = 0x358
                    0x035a                  CCP6TMRH = 0x35a
                    0x035a                  _CCP6TMRH = 0x35a
                    0x035c                  CCP6PRL = 0x35c
                    0x035c                  _CCP6PRL = 0x35c
                    0x035e                  CCP6PRH = 0x35e
                    0x035e                  _CCP6PRH = 0x35e
                    0x0360                  CCP6RA = 0x360
                    0x0360                  _CCP6RA = 0x360
                    0x0360                  CCP6RAL = 0x360
                    0x0360                  _CCP6RAL = 0x360
                    0x0362                  CCP6RAH = 0x362
                    0x0362                  _CCP6RAH = 0x362
                    0x0364                  CCP6RB = 0x364
                    0x0364                  _CCP6RB = 0x364
                    0x0364                  CCP6RBL = 0x364
                    0x0364                  _CCP6RBL = 0x364
                    0x0366                  CCP6RBH = 0x366
                    0x0366                  _CCP6RBH = 0x366
                    0x0368                  CCP6BUFL = 0x368
                    0x0368                  _CCP6BUFL = 0x368
                    0x036a                  CCP6BUFH = 0x36a
                    0x036a                  _CCP6BUFH = 0x36a
                    0x036c                  CCP7CON1L = 0x36c
                    0x036c                  _CCP7CON1L = 0x36c
                    0x036c                  _CCP7CON1Lbits = 0x36c
                    0x036e                  CCP7CON1H = 0x36e
                    0x036e                  _CCP7CON1H = 0x36e
                    0x036e                  _CCP7CON1Hbits = 0x36e
                    0x0370                  CCP7CON2L = 0x370
                    0x0370                  _CCP7CON2L = 0x370
                    0x0370                  _CCP7CON2Lbits = 0x370
                    0x0372                  CCP7CON2H = 0x372
                    0x0372                  _CCP7CON2H = 0x372
                    0x0372                  _CCP7CON2Hbits = 0x372
                    0x0374                  CCP7CON3L = 0x374
                    0x0374                  _CCP7CON3L = 0x374
                    0x0376                  CCP7CON3H = 0x376
                    0x0376                  _CCP7CON3H = 0x376
                    0x0376                  _CCP7CON3Hbits = 0x376
                    0x0378                  CCP7STAT = 0x378
                    0x0378                  _CCP7STAT = 0x378
                    0x0378                  _CCP7STATbits = 0x378
                    0x0378                  CCP7STATL = 0x378
                    0x0378                  _CCP7STATL = 0x378
                    0x0378                  _CCP7STATLbits = 0x378
                    0x037a                  CCP7STATH = 0x37a
                    0x037a                  _CCP7STATH = 0x37a
                    0x037a                  _CCP7STATHbits = 0x37a
                    0x037c                  CCP7TMRL = 0x37c
                    0x037c                  _CCP7TMRL = 0x37c
                    0x037e                  CCP7TMRH = 0x37e
                    0x037e                  _CCP7TMRH = 0x37e
                    0x0380                  CCP7PRL = 0x380
                    0x0380                  _CCP7PRL = 0x380
                    0x0382                  CCP7PRH = 0x382
                    0x0382                  _CCP7PRH = 0x382
                    0x0384                  CCP7RA = 0x384
                    0x0384                  _CCP7RA = 0x384
                    0x0384                  CCP7RAL = 0x384
                    0x0384                  _CCP7RAL = 0x384
                    0x0386                  CCP7RAH = 0x386
                    0x0386                  _CCP7RAH = 0x386
                    0x0388                  CCP7RB = 0x388
                    0x0388                  _CCP7RB = 0x388
                    0x0388                  CCP7RBL = 0x388
                    0x0388                  _CCP7RBL = 0x388
                    0x038a                  CCP7RBH = 0x38a
                    0x038a                  _CCP7RBH = 0x38a
                    0x038c                  CCP7BUFL = 0x38c
                    0x038c                  _CCP7BUFL = 0x38c
                    0x038e                  CCP7BUFH = 0x38e
                    0x038e                  _CCP7BUFH = 0x38e
                    0x0398                  U1MODE = 0x398
                    0x0398                  _U1MODE = 0x398
                    0x0398                  _U1MODEbits = 0x398
                    0x039a                  U1STA = 0x39a
                    0x039a                  _U1STA = 0x39a
                    0x039a                  _U1STAbits = 0x39a
                    0x039c                  U1TXREG = 0x39c
                    0x039c                  _U1TXREG = 0x39c
                    0x039c                  _U1TXREGbits = 0x39c
                    0x039e                  U1RXREG = 0x39e
                    0x039e                  _U1RXREG = 0x39e
                    0x03a0                  U1BRG = 0x3a0
                    0x03a0                  _U1BRG = 0x3a0
                    0x03a2                  U1ADMD = 0x3a2
                    0x03a2                  _U1ADMD = 0x3a2
                    0x03a2                  _U1ADMDbits = 0x3a2
                    0x03ae                  U2MODE = 0x3ae
                    0x03ae                  _U2MODE = 0x3ae
                    0x03ae                  _U2MODEbits = 0x3ae
                    0x03b0                  U2STA = 0x3b0
                    0x03b0                  _U2STA = 0x3b0
                    0x03b0                  _U2STAbits = 0x3b0
                    0x03b2                  U2TXREG = 0x3b2
                    0x03b2                  _U2TXREG = 0x3b2
                    0x03b2                  _U2TXREGbits = 0x3b2
                    0x03b4                  U2RXREG = 0x3b4
                    0x03b4                  _U2RXREG = 0x3b4
                    0x03b6                  U2BRG = 0x3b6
                    0x03b6                  _U2BRG = 0x3b6
                    0x03b8                  U2ADMD = 0x3b8
                    0x03b8                  _U2ADMD = 0x3b8
                    0x03b8                  _U2ADMDbits = 0x3b8
                    0x03c4                  U3MODE = 0x3c4
                    0x03c4                  _U3MODE = 0x3c4
                    0x03c4                  _U3MODEbits = 0x3c4
                    0x03c6                  U3STA = 0x3c6
                    0x03c6                  _U3STA = 0x3c6
                    0x03c6                  _U3STAbits = 0x3c6
                    0x03c8                  U3TXREG = 0x3c8
                    0x03c8                  _U3TXREG = 0x3c8
                    0x03c8                  _U3TXREGbits = 0x3c8
                    0x03ca                  U3RXREG = 0x3ca
                    0x03ca                  _U3RXREG = 0x3ca
                    0x03cc                  U3BRG = 0x3cc
                    0x03cc                  _U3BRG = 0x3cc
                    0x03ce                  U3ADMD = 0x3ce
                    0x03ce                  _U3ADMD = 0x3ce
                    0x03ce                  _U3ADMDbits = 0x3ce
                    0x03d0                  U4MODE = 0x3d0
                    0x03d0                  _U4MODE = 0x3d0
                    0x03d0                  _U4MODEbits = 0x3d0
                    0x03d2                  U4STA = 0x3d2
                    0x03d2                  _U4STA = 0x3d2
                    0x03d2                  _U4STAbits = 0x3d2
                    0x03d4                  U4TXREG = 0x3d4
                    0x03d4                  _U4TXREG = 0x3d4
                    0x03d4                  _U4TXREGbits = 0x3d4
                    0x03d6                  U4RXREG = 0x3d6
                    0x03d6                  _U4RXREG = 0x3d6
                    0x03d8                  U4BRG = 0x3d8
                    0x03d8                  _U4BRG = 0x3d8
                    0x03da                  U4ADMD = 0x3da
                    0x03da                  _U4ADMD = 0x3da
                    0x03da                  _U4ADMDbits = 0x3da
                    0x03dc                  U5MODE = 0x3dc
                    0x03dc                  _U5MODE = 0x3dc
                    0x03dc                  _U5MODEbits = 0x3dc
                    0x03de                  U5STA = 0x3de
                    0x03de                  _U5STA = 0x3de
                    0x03de                  _U5STAbits = 0x3de
                    0x03e0                  U5TXREG = 0x3e0
                    0x03e0                  _U5TXREG = 0x3e0
                    0x03e0                  _U5TXREGbits = 0x3e0
                    0x03e2                  U5RXREG = 0x3e2
                    0x03e2                  _U5RXREG = 0x3e2
                    0x03e4                  U5BRG = 0x3e4
                    0x03e4                  _U5BRG = 0x3e4
                    0x03e6                  U5ADMD = 0x3e6
                    0x03e6                  _U5ADMD = 0x3e6
                    0x03e6                  _U5ADMDbits = 0x3e6
                    0x03e8                  U6MODE = 0x3e8
                    0x03e8                  _U6MODE = 0x3e8
                    0x03e8                  _U6MODEbits = 0x3e8
                    0x03ea                  U6STA = 0x3ea
                    0x03ea                  _U6STA = 0x3ea
                    0x03ea                  _U6STAbits = 0x3ea
                    0x03ec                  U6TXREG = 0x3ec
                    0x03ec                  _U6TXREG = 0x3ec
                    0x03ec                  _U6TXREGbits = 0x3ec
                    0x03ee                  U6RXREG = 0x3ee
                    0x03ee                  _U6RXREG = 0x3ee
                    0x03f0                  U6BRG = 0x3f0
                    0x03f0                  _U6BRG = 0x3f0
                    0x03f2                  U6ADMD = 0x3f2
                    0x03f2                  _U6ADMD = 0x3f2
                    0x03f2                  _U6ADMDbits = 0x3f2
                    0x03f4                  SPI1CON1 = 0x3f4
                    0x03f4                  _SPI1CON1 = 0x3f4
                    0x03f4                  _SPI1CON1bits = 0x3f4
                    0x03f4                  SPI1CON1L = 0x3f4
                    0x03f4                  _SPI1CON1L = 0x3f4
                    0x03f4                  _SPI1CON1Lbits = 0x3f4
                    0x03f6                  SPI1CON1H = 0x3f6
                    0x03f6                  _SPI1CON1H = 0x3f6
                    0x03f6                  _SPI1CON1Hbits = 0x3f6
                    0x03f6                  SPI1CON2 = 0x3f6
                    0x03f6                  _SPI1CON2 = 0x3f6
                    0x03f6                  _SPI1CON2bits = 0x3f6
                    0x03f8                  SPI1CON2L = 0x3f8
                    0x03f8                  _SPI1CON2L = 0x3f8
                    0x03f8                  _SPI1CON2Lbits = 0x3f8
                    0x03f8                  SPI1CON3 = 0x3f8
                    0x03f8                  _SPI1CON3 = 0x3f8
                    0x03f8                  _SPI1CON3bits = 0x3f8
                    0x03fc                  SPI1STATL = 0x3fc
                    0x03fc                  _SPI1STATL = 0x3fc
                    0x03fc                  _SPI1STATLbits = 0x3fc
                    0x03fe                  SPI1STATH = 0x3fe
                    0x03fe                  _SPI1STATH = 0x3fe
                    0x03fe                  _SPI1STATHbits = 0x3fe
                    0x0400                  SPI1BUFL = 0x400
                    0x0400                  _SPI1BUFL = 0x400
                    0x0400                  _SPI1BUFLbits = 0x400
                    0x0402                  SPI1BUFH = 0x402
                    0x0402                  _SPI1BUFH = 0x402
                    0x0402                  _SPI1BUFHbits = 0x402
                    0x0404                  SPI1BRGL = 0x404
                    0x0404                  _SPI1BRGL = 0x404
                    0x0404                  _SPI1BRGLbits = 0x404
                    0x0408                  SPI1IMSK1 = 0x408
                    0x0408                  _SPI1IMSK1 = 0x408
                    0x0408                  _SPI1IMSK1bits = 0x408
                    0x0408                  SPI1IMSKL = 0x408
                    0x0408                  _SPI1IMSKL = 0x408
                    0x0408                  _SPI1IMSKLbits = 0x408
                    0x040a                  SPI1IMSK2 = 0x40a
                    0x040a                  _SPI1IMSK2 = 0x40a
                    0x040a                  _SPI1IMSK2bits = 0x40a
                    0x040a                  SPI1IMSKH = 0x40a
                    0x040a                  _SPI1IMSKH = 0x40a
                    0x040a                  _SPI1IMSKHbits = 0x40a
                    0x040c                  SPI1URDTL = 0x40c
                    0x040c                  _SPI1URDTL = 0x40c
                    0x040c                  _SPI1URDTLbits = 0x40c
                    0x040e                  SPI1URDTH = 0x40e
                    0x040e                  _SPI1URDTH = 0x40e
                    0x040e                  _SPI1URDTHbits = 0x40e
                    0x0410                  SPI2CON1 = 0x410
                    0x0410                  _SPI2CON1 = 0x410
                    0x0410                  _SPI2CON1bits = 0x410
                    0x0410                  SPI2CON1L = 0x410
                    0x0410                  _SPI2CON1L = 0x410
                    0x0410                  _SPI2CON1Lbits = 0x410
                    0x0412                  SPI2CON1H = 0x412
                    0x0412                  _SPI2CON1H = 0x412
                    0x0412                  _SPI2CON1Hbits = 0x412
                    0x0412                  SPI2CON2 = 0x412
                    0x0412                  _SPI2CON2 = 0x412
                    0x0412                  _SPI2CON2bits = 0x412
                    0x0414                  SPI2CON2L = 0x414
                    0x0414                  _SPI2CON2L = 0x414
                    0x0414                  _SPI2CON2Lbits = 0x414
                    0x0414                  SPI2CON3 = 0x414
                    0x0414                  _SPI2CON3 = 0x414
                    0x0414                  _SPI2CON3bits = 0x414
                    0x0418                  SPI2STATL = 0x418
                    0x0418                  _SPI2STATL = 0x418
                    0x0418                  _SPI2STATLbits = 0x418
                    0x041a                  SPI2STATH = 0x41a
                    0x041a                  _SPI2STATH = 0x41a
                    0x041a                  _SPI2STATHbits = 0x41a
                    0x041c                  SPI2BUFL = 0x41c
                    0x041c                  _SPI2BUFL = 0x41c
                    0x041c                  _SPI2BUFLbits = 0x41c
                    0x041e                  SPI2BUFH = 0x41e
                    0x041e                  _SPI2BUFH = 0x41e
                    0x041e                  _SPI2BUFHbits = 0x41e
                    0x0420                  SPI2BRGL = 0x420
                    0x0420                  _SPI2BRGL = 0x420
                    0x0420                  _SPI2BRGLbits = 0x420
                    0x0424                  SPI2IMSK1 = 0x424
                    0x0424                  _SPI2IMSK1 = 0x424
                    0x0424                  _SPI2IMSK1bits = 0x424
                    0x0424                  SPI2IMSKL = 0x424
                    0x0424                  _SPI2IMSKL = 0x424
                    0x0424                  _SPI2IMSKLbits = 0x424
                    0x0426                  SPI2IMSK2 = 0x426
                    0x0426                  _SPI2IMSK2 = 0x426
                    0x0426                  _SPI2IMSK2bits = 0x426
                    0x0426                  SPI2IMSKH = 0x426
                    0x0426                  _SPI2IMSKH = 0x426
                    0x0426                  _SPI2IMSKHbits = 0x426
                    0x0428                  SPI2URDTL = 0x428
                    0x0428                  _SPI2URDTL = 0x428
                    0x0428                  _SPI2URDTLbits = 0x428
                    0x042a                  SPI2URDTH = 0x42a
                    0x042a                  _SPI2URDTH = 0x42a
                    0x042a                  _SPI2URDTHbits = 0x42a
                    0x042c                  SPI3CON1 = 0x42c
                    0x042c                  _SPI3CON1 = 0x42c
                    0x042c                  _SPI3CON1bits = 0x42c
                    0x042c                  SPI3CON1L = 0x42c
                    0x042c                  _SPI3CON1L = 0x42c
                    0x042c                  _SPI3CON1Lbits = 0x42c
                    0x042e                  SPI3CON1H = 0x42e
                    0x042e                  _SPI3CON1H = 0x42e
                    0x042e                  _SPI3CON1Hbits = 0x42e
                    0x042e                  SPI3CON2 = 0x42e
                    0x042e                  _SPI3CON2 = 0x42e
                    0x042e                  _SPI3CON2bits = 0x42e
                    0x0430                  SPI3CON2L = 0x430
                    0x0430                  _SPI3CON2L = 0x430
                    0x0430                  _SPI3CON2Lbits = 0x430
                    0x0430                  SPI3CON3 = 0x430
                    0x0430                  _SPI3CON3 = 0x430
                    0x0430                  _SPI3CON3bits = 0x430
                    0x0434                  SPI3STATL = 0x434
                    0x0434                  _SPI3STATL = 0x434
                    0x0434                  _SPI3STATLbits = 0x434
                    0x0436                  SPI3STATH = 0x436
                    0x0436                  _SPI3STATH = 0x436
                    0x0436                  _SPI3STATHbits = 0x436
                    0x0438                  SPI3BUFL = 0x438
                    0x0438                  _SPI3BUFL = 0x438
                    0x0438                  _SPI3BUFLbits = 0x438
                    0x043a                  SPI3BUFH = 0x43a
                    0x043a                  _SPI3BUFH = 0x43a
                    0x043a                  _SPI3BUFHbits = 0x43a
                    0x043c                  SPI3BRGL = 0x43c
                    0x043c                  _SPI3BRGL = 0x43c
                    0x043c                  _SPI3BRGLbits = 0x43c
                    0x0440                  SPI3IMSK1 = 0x440
                    0x0440                  _SPI3IMSK1 = 0x440
                    0x0440                  _SPI3IMSK1bits = 0x440
                    0x0440                  SPI3IMSKL = 0x440
                    0x0440                  _SPI3IMSKL = 0x440
                    0x0440                  _SPI3IMSKLbits = 0x440
                    0x0442                  SPI3IMSK2 = 0x442
                    0x0442                  _SPI3IMSK2 = 0x442
                    0x0442                  _SPI3IMSK2bits = 0x442
                    0x0442                  SPI3IMSKH = 0x442
                    0x0442                  _SPI3IMSKH = 0x442
                    0x0442                  _SPI3IMSKHbits = 0x442
                    0x0444                  SPI3URDTL = 0x444
                    0x0444                  _SPI3URDTL = 0x444
                    0x0444                  _SPI3URDTLbits = 0x444
                    0x0446                  SPI3URDTH = 0x446
                    0x0446                  _SPI3URDTH = 0x446
                    0x0446                  _SPI3URDTHbits = 0x446
                    0x0464                  CLC1CONL = 0x464
                    0x0464                  _CLC1CONL = 0x464
                    0x0464                  _CLC1CONLbits = 0x464
                    0x0466                  CLC1CONH = 0x466
                    0x0466                  _CLC1CONH = 0x466
                    0x0466                  _CLC1CONHbits = 0x466
                    0x0468                  CLC1SEL = 0x468
                    0x0468                  _CLC1SEL = 0x468
                    0x0468                  _CLC1SELbits = 0x468
                    0x0468                  CLC1SELL = 0x468
                    0x0468                  _CLC1SELL = 0x468
                    0x0468                  _CLC1SELLbits = 0x468
                    0x046c                  CLC1GLSL = 0x46c
                    0x046c                  _CLC1GLSL = 0x46c
                    0x046c                  _CLC1GLSLbits = 0x46c
                    0x046e                  CLC1GLSH = 0x46e
                    0x046e                  _CLC1GLSH = 0x46e
                    0x046e                  _CLC1GLSHbits = 0x46e
                    0x0470                  CLC2CONL = 0x470
                    0x0470                  _CLC2CONL = 0x470
                    0x0470                  _CLC2CONLbits = 0x470
                    0x0472                  CLC2CONH = 0x472
                    0x0472                  _CLC2CONH = 0x472
                    0x0472                  _CLC2CONHbits = 0x472
                    0x0474                  CLC2SEL = 0x474
                    0x0474                  _CLC2SEL = 0x474
                    0x0474                  _CLC2SELbits = 0x474
                    0x0474                  CLC2SELL = 0x474
                    0x0474                  _CLC2SELL = 0x474
                    0x0474                  _CLC2SELLbits = 0x474
                    0x0478                  CLC2GLSL = 0x478
                    0x0478                  _CLC2GLSL = 0x478
                    0x0478                  _CLC2GLSLbits = 0x478
                    0x047a                  CLC2GLSH = 0x47a
                    0x047a                  _CLC2GLSH = 0x47a
                    0x047a                  _CLC2GLSHbits = 0x47a
                    0x047c                  CLC3CONL = 0x47c
                    0x047c                  _CLC3CONL = 0x47c
                    0x047c                  _CLC3CONLbits = 0x47c
                    0x047e                  CLC3CONH = 0x47e
                    0x047e                  _CLC3CONH = 0x47e
                    0x047e                  _CLC3CONHbits = 0x47e
                    0x0480                  CLC3SEL = 0x480
                    0x0480                  _CLC3SEL = 0x480
                    0x0480                  _CLC3SELbits = 0x480
                    0x0480                  CLC3SELL = 0x480
                    0x0480                  _CLC3SELL = 0x480
                    0x0480                  _CLC3SELLbits = 0x480
                    0x0484                  CLC3GLSL = 0x484
                    0x0484                  _CLC3GLSL = 0x484
                    0x0484                  _CLC3GLSLbits = 0x484
                    0x0486                  CLC3GLSH = 0x486
                    0x0486                  _CLC3GLSH = 0x486
                    0x0486                  _CLC3GLSHbits = 0x486
                    0x0488                  CLC4CONL = 0x488
                    0x0488                  _CLC4CONL = 0x488
                    0x0488                  _CLC4CONLbits = 0x488
                    0x048a                  CLC4CONH = 0x48a
                    0x048a                  _CLC4CONH = 0x48a
                    0x048a                  _CLC4CONHbits = 0x48a
                    0x048c                  CLC4SEL = 0x48c
                    0x048c                  _CLC4SEL = 0x48c
                    0x048c                  _CLC4SELbits = 0x48c
                    0x048c                  CLC4SELL = 0x48c
                    0x048c                  _CLC4SELL = 0x48c
                    0x048c                  _CLC4SELLbits = 0x48c
                    0x0490                  CLC4GLSL = 0x490
                    0x0490                  _CLC4GLSL = 0x490
                    0x0490                  _CLC4GLSLbits = 0x490
                    0x0492                  CLC4GLSH = 0x492
                    0x0492                  _CLC4GLSH = 0x492
                    0x0492                  _CLC4GLSHbits = 0x492
                    0x0494                  I2C1RCV = 0x494
                    0x0494                  _I2C1RCV = 0x494
                    0x0494                  _I2C1RCVbits = 0x494
                    0x0496                  I2C1TRN = 0x496
                    0x0496                  _I2C1TRN = 0x496
                    0x0496                  _I2C1TRNbits = 0x496
                    0x0498                  I2C1BRG = 0x498
                    0x0498                  _I2C1BRG = 0x498
                    0x049a                  I2C1CON1 = 0x49a
                    0x049a                  _I2C1CON1 = 0x49a
                    0x049a                  _I2C1CON1bits = 0x49a
                    0x049a                  I2C1CONL = 0x49a
                    0x049a                  _I2C1CONL = 0x49a
                    0x049a                  _I2C1CONLbits = 0x49a
                    0x049c                  I2C1CON2 = 0x49c
                    0x049c                  _I2C1CON2 = 0x49c
                    0x049c                  _I2C1CON2bits = 0x49c
                    0x049c                  I2C1CONH = 0x49c
                    0x049c                  _I2C1CONH = 0x49c
                    0x049c                  _I2C1CONHbits = 0x49c
                    0x049e                  I2C1STAT = 0x49e
                    0x049e                  _I2C1STAT = 0x49e
                    0x049e                  _I2C1STATbits = 0x49e
                    0x04a0                  I2C1ADD = 0x4a0
                    0x04a0                  _I2C1ADD = 0x4a0
                    0x04a0                  _I2C1ADDbits = 0x4a0
                    0x04a2                  I2C1MSK = 0x4a2
                    0x04a2                  _I2C1MSK = 0x4a2
                    0x04a2                  _I2C1MSKbits = 0x4a2
                    0x04a4                  I2C2RCV = 0x4a4
                    0x04a4                  _I2C2RCV = 0x4a4
                    0x04a4                  _I2C2RCVbits = 0x4a4
                    0x04a6                  I2C2TRN = 0x4a6
                    0x04a6                  _I2C2TRN = 0x4a6
                    0x04a6                  _I2C2TRNbits = 0x4a6
                    0x04a8                  I2C2BRG = 0x4a8
                    0x04a8                  _I2C2BRG = 0x4a8
                    0x04aa                  I2C2CON1 = 0x4aa
                    0x04aa                  _I2C2CON1 = 0x4aa
                    0x04aa                  _I2C2CON1bits = 0x4aa
                    0x04aa                  I2C2CONL = 0x4aa
                    0x04aa                  _I2C2CONL = 0x4aa
                    0x04aa                  _I2C2CONLbits = 0x4aa
                    0x04ac                  I2C2CON2 = 0x4ac
                    0x04ac                  _I2C2CON2 = 0x4ac
                    0x04ac                  _I2C2CON2bits = 0x4ac
                    0x04ac                  I2C2CONH = 0x4ac
                    0x04ac                  _I2C2CONH = 0x4ac
                    0x04ac                  _I2C2CONHbits = 0x4ac
                    0x04ae                  I2C2STAT = 0x4ae
                    0x04ae                  _I2C2STAT = 0x4ae
                    0x04ae                  _I2C2STATbits = 0x4ae
                    0x04b0                  I2C2ADD = 0x4b0
                    0x04b0                  _I2C2ADD = 0x4b0
                    0x04b0                  _I2C2ADDbits = 0x4b0
                    0x04b2                  I2C2MSK = 0x4b2
                    0x04b2                  _I2C2MSK = 0x4b2
                    0x04b2                  _I2C2MSKbits = 0x4b2
                    0x04b4                  I2C3RCV = 0x4b4
                    0x04b4                  _I2C3RCV = 0x4b4
                    0x04b4                  _I2C3RCVbits = 0x4b4
                    0x04b6                  I2C3TRN = 0x4b6
                    0x04b6                  _I2C3TRN = 0x4b6
                    0x04b6                  _I2C3TRNbits = 0x4b6
                    0x04b8                  I2C3BRG = 0x4b8
                    0x04b8                  _I2C3BRG = 0x4b8
                    0x04ba                  I2C3CON1 = 0x4ba
                    0x04ba                  _I2C3CON1 = 0x4ba
                    0x04ba                  _I2C3CON1bits = 0x4ba
                    0x04ba                  I2C3CONL = 0x4ba
                    0x04ba                  _I2C3CONL = 0x4ba
                    0x04ba                  _I2C3CONLbits = 0x4ba
                    0x04bc                  I2C3CON2 = 0x4bc
                    0x04bc                  _I2C3CON2 = 0x4bc
                    0x04bc                  _I2C3CON2bits = 0x4bc
                    0x04bc                  I2C3CONH = 0x4bc
                    0x04bc                  _I2C3CONH = 0x4bc
                    0x04bc                  _I2C3CONHbits = 0x4bc
                    0x04be                  I2C3STAT = 0x4be
                    0x04be                  _I2C3STAT = 0x4be
                    0x04be                  _I2C3STATbits = 0x4be
                    0x04c0                  I2C3ADD = 0x4c0
                    0x04c0                  _I2C3ADD = 0x4c0
                    0x04c0                  _I2C3ADDbits = 0x4c0
                    0x04c2                  I2C3MSK = 0x4c2
                    0x04c2                  _I2C3MSK = 0x4c2
                    0x04c2                  _I2C3MSKbits = 0x4c2
                    0x04c4                  DMACON = 0x4c4
                    0x04c4                  _DMACON = 0x4c4
                    0x04c4                  _DMACONbits = 0x4c4
                    0x04c6                  DMABUF = 0x4c6
                    0x04c6                  _DMABUF = 0x4c6
                    0x04c8                  DMAL = 0x4c8
                    0x04c8                  _DMAL = 0x4c8
                    0x04ca                  DMAH = 0x4ca
                    0x04ca                  _DMAH = 0x4ca
                    0x04cc                  DMACH0 = 0x4cc
                    0x04cc                  _DMACH0 = 0x4cc
                    0x04cc                  _DMACH0bits = 0x4cc
                    0x04ce                  DMAINT0 = 0x4ce
                    0x04ce                  _DMAINT0 = 0x4ce
                    0x04ce                  _DMAINT0bits = 0x4ce
                    0x04d0                  DMASRC0 = 0x4d0
                    0x04d0                  _DMASRC0 = 0x4d0
                    0x04d2                  DMADST0 = 0x4d2
                    0x04d2                  _DMADST0 = 0x4d2
                    0x04d4                  DMACNT0 = 0x4d4
                    0x04d4                  _DMACNT0 = 0x4d4
                    0x04d6                  DMACH1 = 0x4d6
                    0x04d6                  _DMACH1 = 0x4d6
                    0x04d6                  _DMACH1bits = 0x4d6
                    0x04d8                  DMAINT1 = 0x4d8
                    0x04d8                  _DMAINT1 = 0x4d8
                    0x04d8                  _DMAINT1bits = 0x4d8
                    0x04da                  DMASRC1 = 0x4da
                    0x04da                  _DMASRC1 = 0x4da
                    0x04dc                  DMADST1 = 0x4dc
                    0x04dc                  _DMADST1 = 0x4dc
                    0x04de                  DMACNT1 = 0x4de
                    0x04de                  _DMACNT1 = 0x4de
                    0x04e0                  DMACH2 = 0x4e0
                    0x04e0                  _DMACH2 = 0x4e0
                    0x04e0                  _DMACH2bits = 0x4e0
                    0x04e2                  DMAINT2 = 0x4e2
                    0x04e2                  _DMAINT2 = 0x4e2
                    0x04e2                  _DMAINT2bits = 0x4e2
                    0x04e4                  DMASRC2 = 0x4e4
                    0x04e4                  _DMASRC2 = 0x4e4
                    0x04e6                  DMADST2 = 0x4e6
                    0x04e6                  _DMADST2 = 0x4e6
                    0x04e8                  DMACNT2 = 0x4e8
                    0x04e8                  _DMACNT2 = 0x4e8
                    0x04ea                  DMACH3 = 0x4ea
                    0x04ea                  _DMACH3 = 0x4ea
                    0x04ea                  _DMACH3bits = 0x4ea
                    0x04ec                  DMAINT3 = 0x4ec
                    0x04ec                  _DMAINT3 = 0x4ec
                    0x04ec                  _DMAINT3bits = 0x4ec
                    0x04ee                  DMASRC3 = 0x4ee
                    0x04ee                  _DMASRC3 = 0x4ee
                    0x04f0                  DMADST3 = 0x4f0
                    0x04f0                  _DMADST3 = 0x4f0
                    0x04f2                  DMACNT3 = 0x4f2
                    0x04f2                  _DMACNT3 = 0x4f2
                    0x04f4                  DMACH4 = 0x4f4
                    0x04f4                  _DMACH4 = 0x4f4
                    0x04f4                  _DMACH4bits = 0x4f4
                    0x04f6                  DMAINT4 = 0x4f6
                    0x04f6                  _DMAINT4 = 0x4f6
                    0x04f6                  _DMAINT4bits = 0x4f6
                    0x04f8                  DMASRC4 = 0x4f8
                    0x04f8                  _DMASRC4 = 0x4f8
                    0x04fa                  DMADST4 = 0x4fa
                    0x04fa                  _DMADST4 = 0x4fa
                    0x04fc                  DMACNT4 = 0x4fc
                    0x04fc                  _DMACNT4 = 0x4fc
                    0x04fe                  DMACH5 = 0x4fe
                    0x04fe                  _DMACH5 = 0x4fe
                    0x04fe                  _DMACH5bits = 0x4fe
                    0x0500                  DMAINT5 = 0x500
                    0x0500                  _DMAINT5 = 0x500
                    0x0500                  _DMAINT5bits = 0x500
                    0x0502                  DMASRC5 = 0x502
                    0x0502                  _DMASRC5 = 0x502
                    0x0504                  DMADST5 = 0x504
                    0x0504                  _DMADST5 = 0x504
                    0x0506                  DMACNT5 = 0x506
                    0x0506                  _DMACNT5 = 0x506
                    0x0508                  DMACH6 = 0x508
                    0x0508                  _DMACH6 = 0x508
                    0x0508                  _DMACH6bits = 0x508
                    0x050a                  DMAINT6 = 0x50a
                    0x050a                  _DMAINT6 = 0x50a
                    0x050a                  _DMAINT6bits = 0x50a
                    0x050c                  DMASRC6 = 0x50c
                    0x050c                  _DMASRC6 = 0x50c
                    0x050e                  DMADST6 = 0x50e
                    0x050e                  _DMADST6 = 0x50e
                    0x0510                  DMACNT6 = 0x510
                    0x0510                  _DMACNT6 = 0x510
                    0x0512                  DMACH7 = 0x512
                    0x0512                  _DMACH7 = 0x512
                    0x0512                  _DMACH7bits = 0x512
                    0x0514                  DMAINT7 = 0x514
                    0x0514                  _DMAINT7 = 0x514
                    0x0514                  _DMAINT7bits = 0x514
                    0x0516                  DMASRC7 = 0x516
                    0x0516                  _DMASRC7 = 0x516
                    0x0518                  DMADST7 = 0x518
                    0x0518                  _DMADST7 = 0x518
                    0x051a                  DMACNT7 = 0x51a
                    0x051a                  _DMACNT7 = 0x51a
                    0x065e                  PADCON = 0x65e
                    0x065e                  _PADCON = 0x65e
                    0x065e                  _PADCONbits = 0x65e
                    0x0660                  IOCSTAT = 0x660
                    0x0660                  _IOCSTAT = 0x660
                    0x0660                  _IOCSTATbits = 0x660
                    0x0676                  TRISB = 0x676
                    0x0676                  _TRISB = 0x676
                    0x0676                  _TRISBbits = 0x676
                    0x0678                  PORTB = 0x678
                    0x0678                  _PORTB = 0x678
                    0x0678                  _PORTBbits = 0x678
                    0x067a                  LATB = 0x67a
                    0x067a                  _LATB = 0x67a
                    0x067a                  _LATBbits = 0x67a
                    0x067c                  ODCB = 0x67c
                    0x067c                  _ODCB = 0x67c
                    0x067c                  _ODCBbits = 0x67c
                    0x067e                  ANSB = 0x67e
                    0x067e                  _ANSB = 0x67e
                    0x067e                  _ANSBbits = 0x67e
                    0x067e                  ANSELB = 0x67e
                    0x067e                  _ANSELB = 0x67e
                    0x067e                  _ANSELBbits = 0x67e
                    0x0680                  IOCPB = 0x680
                    0x0680                  _IOCPB = 0x680
                    0x0680                  _IOCPBbits = 0x680
                    0x0682                  IOCNB = 0x682
                    0x0682                  _IOCNB = 0x682
                    0x0682                  _IOCNBbits = 0x682
                    0x0684                  IOCFB = 0x684
                    0x0684                  _IOCFB = 0x684
                    0x0684                  _IOCFBbits = 0x684
                    0x0686                  CNPUB = 0x686
                    0x0686                  _CNPUB = 0x686
                    0x0686                  _CNPUBbits = 0x686
                    0x0686                  IOCPUB = 0x686
                    0x0686                  _IOCPUB = 0x686
                    0x0686                  _IOCPUBbits = 0x686
                    0x0688                  CNPDB = 0x688
                    0x0688                  _CNPDB = 0x688
                    0x0688                  _CNPDBbits = 0x688
                    0x0688                  IOCPDB = 0x688
                    0x0688                  _IOCPDB = 0x688
                    0x0688                  _IOCPDBbits = 0x688
                    0x068a                  TRISC = 0x68a
                    0x068a                  _TRISC = 0x68a
                    0x068a                  _TRISCbits = 0x68a
                    0x068c                  PORTC = 0x68c
                    0x068c                  _PORTC = 0x68c
                    0x068c                  _PORTCbits = 0x68c
                    0x068e                  LATC = 0x68e
                    0x068e                  _LATC = 0x68e
                    0x068e                  _LATCbits = 0x68e
                    0x0690                  ODCC = 0x690
                    0x0690                  _ODCC = 0x690
                    0x0690                  _ODCCbits = 0x690
                    0x0692                  ANSC = 0x692
                    0x0692                  _ANSC = 0x692
                    0x0692                  _ANSCbits = 0x692
                    0x0692                  ANSELC = 0x692
                    0x0692                  _ANSELC = 0x692
                    0x0692                  _ANSELCbits = 0x692
                    0x0694                  IOCPC = 0x694
                    0x0694                  _IOCPC = 0x694
                    0x0694                  _IOCPCbits = 0x694
                    0x0696                  IOCNC = 0x696
                    0x0696                  _IOCNC = 0x696
                    0x0696                  _IOCNCbits = 0x696
                    0x0698                  IOCFC = 0x698
                    0x0698                  _IOCFC = 0x698
                    0x0698                  _IOCFCbits = 0x698
                    0x069a                  CNPUC = 0x69a
                    0x069a                  _CNPUC = 0x69a
                    0x069a                  _CNPUCbits = 0x69a
                    0x069a                  IOCPUC = 0x69a
                    0x069a                  _IOCPUC = 0x69a
                    0x069a                  _IOCPUCbits = 0x69a
                    0x069c                  CNPDC = 0x69c
                    0x069c                  _CNPDC = 0x69c
                    0x069c                  _CNPDCbits = 0x69c
                    0x069c                  IOCPDC = 0x69c
                    0x069c                  _IOCPDC = 0x69c
                    0x069c                  _IOCPDCbits = 0x69c
                    0x069e                  TRISD = 0x69e
                    0x069e                  _TRISD = 0x69e
                    0x069e                  _TRISDbits = 0x69e
                    0x06a0                  PORTD = 0x6a0
                    0x06a0                  _PORTD = 0x6a0
                    0x06a0                  _PORTDbits = 0x6a0
                    0x06a2                  LATD = 0x6a2
                    0x06a2                  _LATD = 0x6a2
                    0x06a2                  _LATDbits = 0x6a2
                    0x06a4                  ODCD = 0x6a4
                    0x06a4                  _ODCD = 0x6a4
                    0x06a4                  _ODCDbits = 0x6a4
                    0x06a6                  ANSD = 0x6a6
                    0x06a6                  _ANSD = 0x6a6
                    0x06a6                  _ANSDbits = 0x6a6
                    0x06a6                  ANSELD = 0x6a6
                    0x06a6                  _ANSELD = 0x6a6
                    0x06a6                  _ANSELDbits = 0x6a6
                    0x06a8                  IOCPD = 0x6a8
                    0x06a8                  _IOCPD = 0x6a8
                    0x06a8                  _IOCPDbits = 0x6a8
                    0x06aa                  IOCND = 0x6aa
                    0x06aa                  _IOCND = 0x6aa
                    0x06aa                  _IOCNDbits = 0x6aa
                    0x06ac                  IOCFD = 0x6ac
                    0x06ac                  _IOCFD = 0x6ac
                    0x06ac                  _IOCFDbits = 0x6ac
                    0x06ae                  CNPUD = 0x6ae
                    0x06ae                  _CNPUD = 0x6ae
                    0x06ae                  _CNPUDbits = 0x6ae
                    0x06ae                  IOCPUD = 0x6ae
                    0x06ae                  _IOCPUD = 0x6ae
                    0x06ae                  _IOCPUDbits = 0x6ae
                    0x06b0                  CNPDD = 0x6b0
                    0x06b0                  _CNPDD = 0x6b0
                    0x06b0                  _CNPDDbits = 0x6b0
                    0x06b0                  IOCPDD = 0x6b0
                    0x06b0                  _IOCPDD = 0x6b0
                    0x06b0                  _IOCPDDbits = 0x6b0
                    0x06b2                  TRISE = 0x6b2
                    0x06b2                  _TRISE = 0x6b2
                    0x06b2                  _TRISEbits = 0x6b2
                    0x06b4                  PORTE = 0x6b4
                    0x06b4                  _PORTE = 0x6b4
                    0x06b4                  _PORTEbits = 0x6b4
                    0x06b6                  LATE = 0x6b6
                    0x06b6                  _LATE = 0x6b6
                    0x06b6                  _LATEbits = 0x6b6
                    0x06b8                  ODCE = 0x6b8
                    0x06b8                  _ODCE = 0x6b8
                    0x06b8                  _ODCEbits = 0x6b8
                    0x06ba                  ANSE = 0x6ba
                    0x06ba                  _ANSE = 0x6ba
                    0x06ba                  _ANSEbits = 0x6ba
                    0x06ba                  ANSELE = 0x6ba
                    0x06ba                  _ANSELE = 0x6ba
                    0x06ba                  _ANSELEbits = 0x6ba
                    0x06bc                  IOCPE = 0x6bc
                    0x06bc                  _IOCPE = 0x6bc
                    0x06bc                  _IOCPEbits = 0x6bc
                    0x06be                  IOCNE = 0x6be
                    0x06be                  _IOCNE = 0x6be
                    0x06be                  _IOCNEbits = 0x6be
                    0x06c0                  IOCFE = 0x6c0
                    0x06c0                  _IOCFE = 0x6c0
                    0x06c0                  _IOCFEbits = 0x6c0
                    0x06c2                  CNPUE = 0x6c2
                    0x06c2                  _CNPUE = 0x6c2
                    0x06c2                  _CNPUEbits = 0x6c2
                    0x06c2                  IOCPUE = 0x6c2
                    0x06c2                  _IOCPUE = 0x6c2
                    0x06c2                  _IOCPUEbits = 0x6c2
                    0x06c4                  CNPDE = 0x6c4
                    0x06c4                  _CNPDE = 0x6c4
                    0x06c4                  _CNPDEbits = 0x6c4
                    0x06c4                  IOCPDE = 0x6c4
                    0x06c4                  _IOCPDE = 0x6c4
                    0x06c4                  _IOCPDEbits = 0x6c4
                    0x06c6                  TRISF = 0x6c6
                    0x06c6                  _TRISF = 0x6c6
                    0x06c6                  _TRISFbits = 0x6c6
                    0x06c8                  PORTF = 0x6c8
                    0x06c8                  _PORTF = 0x6c8
                    0x06c8                  _PORTFbits = 0x6c8
                    0x06ca                  LATF = 0x6ca
                    0x06ca                  _LATF = 0x6ca
                    0x06ca                  _LATFbits = 0x6ca
                    0x06cc                  ODCF = 0x6cc
                    0x06cc                  _ODCF = 0x6cc
                    0x06cc                  _ODCFbits = 0x6cc
                    0x06ce                  ANSELF = 0x6ce
                    0x06ce                  _ANSELF = 0x6ce
                    0x06ce                  ANSF = 0x6ce
                    0x06ce                  _ANSF = 0x6ce
                    0x06d0                  IOCPF = 0x6d0
                    0x06d0                  _IOCPF = 0x6d0
                    0x06d0                  _IOCPFbits = 0x6d0
                    0x06d2                  IOCNF = 0x6d2
                    0x06d2                  _IOCNF = 0x6d2
                    0x06d2                  _IOCNFbits = 0x6d2
                    0x06d4                  IOCFF = 0x6d4
                    0x06d4                  _IOCFF = 0x6d4
                    0x06d4                  _IOCFFbits = 0x6d4
                    0x06d6                  CNPUF = 0x6d6
                    0x06d6                  _CNPUF = 0x6d6
                    0x06d6                  _CNPUFbits = 0x6d6
                    0x06d6                  IOCPUF = 0x6d6
                    0x06d6                  _IOCPUF = 0x6d6
                    0x06d6                  _IOCPUFbits = 0x6d6
                    0x06d8                  CNPDF = 0x6d8
                    0x06d8                  _CNPDF = 0x6d8
                    0x06d8                  _CNPDFbits = 0x6d8
                    0x06d8                  IOCPDF = 0x6d8
                    0x06d8                  _IOCPDF = 0x6d8
                    0x06d8                  _IOCPDFbits = 0x6d8
                    0x06da                  TRISG = 0x6da
                    0x06da                  _TRISG = 0x6da
                    0x06da                  _TRISGbits = 0x6da
                    0x06dc                  PORTG = 0x6dc
                    0x06dc                  _PORTG = 0x6dc
                    0x06dc                  _PORTGbits = 0x6dc
                    0x06de                  LATG = 0x6de
                    0x06de                  _LATG = 0x6de
                    0x06de                  _LATGbits = 0x6de
                    0x06e0                  ODCG = 0x6e0
                    0x06e0                  _ODCG = 0x6e0
                    0x06e0                  _ODCGbits = 0x6e0
                    0x06e2                  ANSELG = 0x6e2
                    0x06e2                  _ANSELG = 0x6e2
                    0x06e2                  _ANSELGbits = 0x6e2
                    0x06e2                  ANSG = 0x6e2
                    0x06e2                  _ANSG = 0x6e2
                    0x06e2                  _ANSGbits = 0x6e2
                    0x06e4                  IOCPG = 0x6e4
                    0x06e4                  _IOCPG = 0x6e4
                    0x06e4                  _IOCPGbits = 0x6e4
                    0x06e6                  IOCNG = 0x6e6
                    0x06e6                  _IOCNG = 0x6e6
                    0x06e6                  _IOCNGbits = 0x6e6
                    0x06e8                  IOCFG = 0x6e8
                    0x06e8                  _IOCFG = 0x6e8
                    0x06e8                  _IOCFGbits = 0x6e8
                    0x06ea                  CNPUG = 0x6ea
                    0x06ea                  _CNPUG = 0x6ea
                    0x06ea                  _CNPUGbits = 0x6ea
                    0x06ea                  IOCPUG = 0x6ea
                    0x06ea                  _IOCPUG = 0x6ea
                    0x06ea                  _IOCPUGbits = 0x6ea
                    0x06ec                  CNPDG = 0x6ec
                    0x06ec                  _CNPDG = 0x6ec
                    0x06ec                  _CNPDGbits = 0x6ec
                    0x06ec                  IOCPDG = 0x6ec
                    0x06ec                  _IOCPDG = 0x6ec
                    0x06ec                  _IOCPDGbits = 0x6ec
                    0x0712                  ADC1BUF0 = 0x712
                    0x0712                  _ADC1BUF0 = 0x712
                    0x0714                  ADC1BUF1 = 0x714
                    0x0714                  _ADC1BUF1 = 0x714
                    0x0716                  ADC1BUF2 = 0x716
                    0x0716                  _ADC1BUF2 = 0x716
                    0x0718                  ADC1BUF3 = 0x718
                    0x0718                  _ADC1BUF3 = 0x718
                    0x071a                  ADC1BUF4 = 0x71a
                    0x071a                  _ADC1BUF4 = 0x71a
                    0x071c                  ADC1BUF5 = 0x71c
                    0x071c                  _ADC1BUF5 = 0x71c
                    0x071e                  ADC1BUF6 = 0x71e
                    0x071e                  _ADC1BUF6 = 0x71e
                    0x0720                  ADC1BUF7 = 0x720
                    0x0720                  _ADC1BUF7 = 0x720
                    0x0722                  ADC1BUF8 = 0x722
                    0x0722                  _ADC1BUF8 = 0x722
                    0x0724                  ADC1BUF9 = 0x724
                    0x0724                  _ADC1BUF9 = 0x724
                    0x0726                  ADC1BUF10 = 0x726
                    0x0726                  _ADC1BUF10 = 0x726
                    0x0728                  ADC1BUF11 = 0x728
                    0x0728                  _ADC1BUF11 = 0x728
                    0x072a                  ADC1BUF12 = 0x72a
                    0x072a                  _ADC1BUF12 = 0x72a
                    0x072c                  ADC1BUF13 = 0x72c
                    0x072c                  _ADC1BUF13 = 0x72c
                    0x072e                  ADC1BUF14 = 0x72e
                    0x072e                  _ADC1BUF14 = 0x72e
                    0x0730                  ADC1BUF15 = 0x730
                    0x0730                  _ADC1BUF15 = 0x730
                    0x0732                  ADC1BUF16 = 0x732
                    0x0732                  _ADC1BUF16 = 0x732
                    0x0734                  ADC1BUF17 = 0x734
                    0x0734                  _ADC1BUF17 = 0x734
                    0x0736                  ADC1BUF18 = 0x736
                    0x0736                  _ADC1BUF18 = 0x736
                    0x0738                  ADC1BUF19 = 0x738
                    0x0738                  _ADC1BUF19 = 0x738
                    0x073a                  ADC1BUF20 = 0x73a
                    0x073a                  _ADC1BUF20 = 0x73a
                    0x073c                  ADC1BUF21 = 0x73c
                    0x073c                  _ADC1BUF21 = 0x73c
                    0x073e                  ADC1BUF22 = 0x73e
                    0x073e                  _ADC1BUF22 = 0x73e
                    0x0740                  ADC1BUF23 = 0x740
                    0x0740                  _ADC1BUF23 = 0x740
                    0x0742                  ADC1BUF24 = 0x742
                    0x0742                  _ADC1BUF24 = 0x742
                    0x0744                  ADC1BUF25 = 0x744
                    0x0744                  _ADC1BUF25 = 0x744
                    0x0746                  AD1CON1 = 0x746
                    0x0746                  _AD1CON1 = 0x746
                    0x0746                  _AD1CON1bits = 0x746
                    0x0748                  AD1CON2 = 0x748
                    0x0748                  _AD1CON2 = 0x748
                    0x0748                  _AD1CON2bits = 0x748
                    0x074a                  AD1CON3 = 0x74a
                    0x074a                  _AD1CON3 = 0x74a
                    0x074a                  _AD1CON3bits = 0x74a
                    0x074c                  AD1CHS = 0x74c
                    0x074c                  _AD1CHS = 0x74c
                    0x074c                  _AD1CHSbits = 0x74c
                    0x074c                  AD1CHS0 = 0x74c
                    0x074c                  _AD1CHS0 = 0x74c
                    0x074c                  _AD1CHS0bits = 0x74c
                    0x074e                  AD1CSSH = 0x74e
                    0x074e                  _AD1CSSH = 0x74e
                    0x074e                  _AD1CSSHbits = 0x74e
                    0x0750                  AD1CSSL = 0x750
                    0x0750                  _AD1CSSL = 0x750
                    0x0750                  _AD1CSSLbits = 0x750
                    0x0752                  AD1CON4 = 0x752
                    0x0752                  _AD1CON4 = 0x752
                    0x0752                  _AD1CON4bits = 0x752
                    0x0754                  AD1CON5 = 0x754
                    0x0754                  _AD1CON5 = 0x754
                    0x0754                  _AD1CON5bits = 0x754
                    0x0756                  AD1CHITH = 0x756
                    0x0756                  _AD1CHITH = 0x756
                    0x0756                  _AD1CHITHbits = 0x756
                    0x0758                  AD1CHITL = 0x758
                    0x0758                  _AD1CHITL = 0x758
                    0x0758                  _AD1CHITLbits = 0x758
                    0x075a                  AD1CTMENH = 0x75a
                    0x075a                  _AD1CTMENH = 0x75a
                    0x075a                  _AD1CTMENHbits = 0x75a
                    0x075c                  AD1CTMENL = 0x75c
                    0x075c                  _AD1CTMENL = 0x75c
                    0x075c                  _AD1CTMENLbits = 0x75c
                    0x075e                  AD1RESDMA = 0x75e
                    0x075e                  _AD1RESDMA = 0x75e
                    0x075e                  _AD1RESDMAbits = 0x75e
                    0x0760                  NVMCON = 0x760
                    0x0760                  _NVMCON = 0x760
                    0x0760                  _NVMCONbits = 0x760
                    0x0762                  NVMADR = 0x762
                    0x0762                  _NVMADR = 0x762
                    0x0762                  _NVMADRbits = 0x762
                    0x0762                  NVMADRL = 0x762
                    0x0762                  _NVMADRL = 0x762
                    0x0762                  _NVMADRLbits = 0x762
                    0x0764                  NVMADRH = 0x764
                    0x0764                  _NVMADRH = 0x764
                    0x0764                  _NVMADRHbits = 0x764
                    0x0764                  NVMADRU = 0x764
                    0x0764                  _NVMADRU = 0x764
                    0x0764                  _NVMADRUbits = 0x764
                    0x0766                  NVMKEY = 0x766
                    0x0766                  _NVMKEY = 0x766
                    0x0790                  RPINR0 = 0x790
                    0x0790                  _RPINR0 = 0x790
                    0x0790                  _RPINR0bits = 0x790
                    0x0792                  RPINR1 = 0x792
                    0x0792                  _RPINR1 = 0x792
                    0x0792                  _RPINR1bits = 0x792
                    0x0794                  RPINR2 = 0x794
                    0x0794                  _RPINR2 = 0x794
                    0x0794                  _RPINR2bits = 0x794
                    0x0796                  RPINR3 = 0x796
                    0x0796                  _RPINR3 = 0x796
                    0x0796                  _RPINR3bits = 0x796
                    0x0798                  RPINR4 = 0x798
                    0x0798                  _RPINR4 = 0x798
                    0x0798                  _RPINR4bits = 0x798
                    0x079e                  RPINR7 = 0x79e
                    0x079e                  _RPINR7 = 0x79e
                    0x079e                  _RPINR7bits = 0x79e
                    0x07a0                  RPINR8 = 0x7a0
                    0x07a0                  _RPINR8 = 0x7a0
                    0x07a0                  _RPINR8bits = 0x7a0
                    0x07a6                  RPINR11 = 0x7a6
                    0x07a6                  _RPINR11 = 0x7a6
                    0x07a6                  _RPINR11bits = 0x7a6
                    0x07a8                  RPINR12 = 0x7a8
                    0x07a8                  _RPINR12 = 0x7a8
                    0x07a8                  _RPINR12bits = 0x7a8
                    0x07b2                  RPINR17 = 0x7b2
                    0x07b2                  _RPINR17 = 0x7b2
                    0x07b2                  _RPINR17bits = 0x7b2
                    0x07b4                  RPINR18 = 0x7b4
                    0x07b4                  _RPINR18 = 0x7b4
                    0x07b4                  _RPINR18bits = 0x7b4
                    0x07b6                  RPINR19 = 0x7b6
                    0x07b6                  _RPINR19 = 0x7b6
                    0x07b6                  _RPINR19bits = 0x7b6
                    0x07b8                  RPINR20 = 0x7b8
                    0x07b8                  _RPINR20 = 0x7b8
                    0x07b8                  _RPINR20bits = 0x7b8
                    0x07ba                  RPINR21 = 0x7ba
                    0x07ba                  _RPINR21 = 0x7ba
                    0x07ba                  _RPINR21bits = 0x7ba
                    0x07bc                  RPINR22 = 0x7bc
                    0x07bc                  _RPINR22 = 0x7bc
                    0x07bc                  _RPINR22bits = 0x7bc
                    0x07be                  RPINR23 = 0x7be
                    0x07be                  _RPINR23 = 0x7be
                    0x07be                  _RPINR23bits = 0x7be
                    0x07c2                  RPINR25 = 0x7c2
                    0x07c2                  _RPINR25 = 0x7c2
                    0x07c2                  _RPINR25bits = 0x7c2
                    0x07c6                  RPINR27 = 0x7c6
                    0x07c6                  _RPINR27 = 0x7c6
                    0x07c6                  _RPINR27bits = 0x7c6
                    0x07c8                  RPINR28 = 0x7c8
                    0x07c8                  _RPINR28 = 0x7c8
                    0x07c8                  _RPINR28bits = 0x7c8
                    0x07ca                  RPINR29 = 0x7ca
                    0x07ca                  _RPINR29 = 0x7ca
                    0x07ca                  _RPINR29bits = 0x7ca
                    0x07d4                  RPOR0 = 0x7d4
                    0x07d4                  _RPOR0 = 0x7d4
                    0x07d4                  _RPOR0bits = 0x7d4
                    0x07d6                  RPOR1 = 0x7d6
                    0x07d6                  _RPOR1 = 0x7d6
                    0x07d6                  _RPOR1bits = 0x7d6
                    0x07d8                  RPOR2 = 0x7d8
                    0x07d8                  _RPOR2 = 0x7d8
                    0x07d8                  _RPOR2bits = 0x7d8
                    0x07da                  RPOR3 = 0x7da
                    0x07da                  _RPOR3 = 0x7da
                    0x07da                  _RPOR3bits = 0x7da
                    0x07dc                  RPOR4 = 0x7dc
                    0x07dc                  _RPOR4 = 0x7dc
                    0x07dc                  _RPOR4bits = 0x7dc
                    0x07de                  RPOR5 = 0x7de
                    0x07de                  _RPOR5 = 0x7de
                    0x07de                  _RPOR5bits = 0x7de
                    0x07e0                  RPOR6 = 0x7e0
                    0x07e0                  _RPOR6 = 0x7e0
                    0x07e0                  _RPOR6bits = 0x7e0
                    0x07e2                  RPOR7 = 0x7e2
                    0x07e2                  _RPOR7 = 0x7e2
                    0x07e2                  _RPOR7bits = 0x7e2
                    0x07e4                  RPOR8 = 0x7e4
                    0x07e4                  _RPOR8 = 0x7e4
                    0x07e4                  _RPOR8bits = 0x7e4
                    0x07e6                  RPOR9 = 0x7e6
                    0x07e6                  _RPOR9 = 0x7e6
                    0x07e6                  _RPOR9bits = 0x7e6
                    0x07e8                  RPOR10 = 0x7e8
                    0x07e8                  _RPOR10 = 0x7e8
                    0x07e8                  _RPOR10bits = 0x7e8
                    0x07ea                  RPOR11 = 0x7ea
                    0x07ea                  _RPOR11 = 0x7ea
                    0x07ea                  _RPOR11bits = 0x7ea
                    0x07ec                  RPOR12 = 0x7ec
                    0x07ec                  _RPOR12 = 0x7ec
                    0x07ec                  _RPOR12bits = 0x7ec
                    0x07ee                  RPOR13 = 0x7ee
                    0x07ee                  _RPOR13 = 0x7ee
                    0x07ee                  _RPOR13bits = 0x7ee
                    0x07f0                  RPOR14 = 0x7f0
                    0x07f0                  _RPOR14 = 0x7f0
                    0x07f0                  _RPOR14bits = 0x7f0
                    0x07f2                  RPOR15 = 0x7f2
                    0x07f2                  _RPOR15 = 0x7f2
                    0x07f2                  _RPOR15bits = 0x7f2
                    0x0204                  IC1 = 0x204
                    0x0204                  _IC1 = 0x204
                    0x020c                  IC2 = 0x20c
                    0x020c                  _IC2 = 0x20c
                    0x0214                  IC3 = 0x214
                    0x0214                  _IC3 = 0x214
                    0x021c                  IC4 = 0x21c
                    0x021c                  _IC4 = 0x21c
                    0x0224                  IC5 = 0x224
                    0x0224                  _IC5 = 0x224
                    0x022c                  IC6 = 0x22c
                    0x022c                  _IC6 = 0x22c
                    0x0234                  OC1 = 0x234
                    0x0234                  _OC1 = 0x234
                    0x023e                  OC2 = 0x23e
                    0x023e                  _OC2 = 0x23e
                    0x0248                  OC3 = 0x248
                    0x0248                  _OC3 = 0x248
                    0x0252                  OC4 = 0x252
                    0x0252                  _OC4 = 0x252
                    0x025c                  OC5 = 0x25c
                    0x025c                  _OC5 = 0x25c
                    0x0266                  OC6 = 0x266
                    0x0266                  _OC6 = 0x266
                    0x0398                  UART1 = 0x398
                    0x0398                  _UART1 = 0x398
                    0x03ae                  UART2 = 0x3ae
                    0x03ae                  _UART2 = 0x3ae
START GROUP
LOAD c:/program files (x86)/microchip/xc16/v1.36/bin/bin/../../lib\liblega-pic30-elf.a
LOAD c:/program files (x86)/microchip/xc16/v1.36/bin/bin/../../lib\libm-elf.a
LOAD c:/program files (x86)/microchip/xc16/v1.36/bin/bin/../../lib\liblega-c-elf.a
END GROUP
OUTPUT(dist/default/production/MobitLock.production.elf elf32-pic30)
LOAD /CW/_FSEC
LOAD jump_table
LOAD default_isr
LOAD data_init

.debug_pubtypes
                  0x000150        0xa9a
 .debug_pubtypes
                  0x000150         0x31 build/default/production/000_Main.o
 .debug_pubtypes
                  0x000181         0xeb build/default/production/001_Tick_10ms.o
 .debug_pubtypes
                  0x00026c         0x2b build/default/production/002_CLRC663.o
 .debug_pubtypes
                  0x000297        0x319 build/default/production/003_BG96.o
 .debug_pubtypes
                  0x0005b0         0x12 build/default/production/004_LB1938.o
 .debug_pubtypes
                  0x0005c2         0x56 build/default/production/005_BNO055.o
 .debug_pubtypes
                  0x000618         0x1f build/default/production/006_Gpio.o
 .debug_pubtypes
                  0x000637        0x335 build/default/production/007_Uart.o
 .debug_pubtypes
                  0x00096c         0x23 build/default/production/008_RingBuffer.o
 .debug_pubtypes
                  0x00098f         0x1f build/default/production/009_System.o
 .debug_pubtypes
                  0x0009ae         0x1e build/default/production/012_CLRC663_NFC.o
 .debug_pubtypes
                  0x0009cc        0x1be build/default/production/011_Spi.o
 .debug_pubtypes
                  0x000b8a         0x42 build/default/production/013_Protocol.o
 .debug_pubtypes
                  0x000bcc         0x1e build/default/production/014_md5.o

__c30_signature
                  0x000bea        0x264
 __c30_signature
                  0x000bea          0x6 build/default/production/000_Main.o
 __c30_signature
                  0x000bf0          0x6 build/default/production/001_Tick_10ms.o
 __c30_signature
                  0x000bf6          0x6 build/default/production/002_CLRC663.o
 __c30_signature
                  0x000bfc          0x6 build/default/production/003_BG96.o
 __c30_signature
                  0x000c02          0x6 build/default/production/004_LB1938.o
 __c30_signature
                  0x000c08          0x6 build/default/production/005_BNO055.o
 __c30_signature
                  0x000c0e          0x6 build/default/production/006_Gpio.o
 __c30_signature
                  0x000c14          0x6 build/default/production/007_Uart.o
 __c30_signature
                  0x000c1a          0x6 build/default/production/008_RingBuffer.o
 __c30_signature
                  0x000c20          0x6 build/default/production/009_System.o
 __c30_signature
                  0x000c26          0x6 build/default/production/012_CLRC663_NFC.o
 __c30_signature
                  0x000c2c          0x6 build/default/production/011_Spi.o
 __c30_signature
                  0x000c32          0x6 build/default/production/013_Protocol.o
 __c30_signature
                  0x000c38          0x6 build/default/production/014_md5.o
 __c30_signature
                  0x000c3e          0x6 c:/program files (x86)/microchip/xc16/v1.36/bin/bin/../../lib\liblega-pic30-elf.a(crt0_extended24.o)
 __c30_signature
                  0x000c44          0x6 c:/program files (x86)/microchip/xc16/v1.36/bin/bin/../../lib\liblega-pic30-elf.a(data_init_24.o)
 __c30_signature
                  0x000c4a          0x6 c:/program files (x86)/microchip/xc16/v1.36/bin/bin/../../lib\libm-elf.a(divsf3.daeo)
 __c30_signature
                  0x000c50          0x6 c:/program files (x86)/microchip/xc16/v1.36/bin/bin/../../lib\libm-elf.a(floatsisf.daeo)
 __c30_signature
                  0x000c56          0x6 c:/program files (x86)/microchip/xc16/v1.36/bin/bin/../../lib\libm-elf.a(fpack.daeo)
 __c30_signature
                  0x000c5c          0x6 c:/program files (x86)/microchip/xc16/v1.36/bin/bin/../../lib\libm-elf.a(funpack2.daeo)
 __c30_signature
                  0x000c62          0x6 c:/program files (x86)/microchip/xc16/v1.36/bin/bin/../../lib\libm-elf.a(futil.daeo)
 __c30_signature
                  0x000c68          0x6 c:/program files (x86)/microchip/xc16/v1.36/bin/bin/../../lib\libm-elf.a(udivsi3.daeo)
 __c30_signature
                  0x000c6e          0x6 c:/program files (x86)/microchip/xc16/v1.36/bin/bin/../../lib\libm-elf.a(umodsi3.daeo)
 __c30_signature
                  0x000c74          0x6 c:/program files (x86)/microchip/xc16/v1.36/bin/bin/../../lib\libm-elf.a(floatdisf.daeo)
 __c30_signature
                  0x000c7a          0x6 c:/program files (x86)/microchip/xc16/v1.36/bin/bin/../../lib\libm-elf.a(floatundisf.daeo)
 __c30_signature
                  0x000c80          0x6 c:/program files (x86)/microchip/xc16/v1.36/bin/bin/../../lib\libm-elf.a(funpack.daeo)
 __c30_signature
                  0x000c86          0x6 c:/program files (x86)/microchip/xc16/v1.36/bin/bin/../../lib\liblega-c-elf.a(memcpy.DA_eo)
 __c30_signature
                  0x000c8c          0x6 c:/program files (x86)/microchip/xc16/v1.36/bin/bin/../../lib\liblega-c-elf.a(memset.DA_eo)
 __c30_signature
                  0x000c92          0x6 c:/program files (x86)/microchip/xc16/v1.36/bin/bin/../../lib\liblega-c-elf.a(putchar.DA_eo)
 __c30_signature
                  0x000c98          0x6 c:/program files (x86)/microchip/xc16/v1.36/bin/bin/../../lib\liblega-c-elf.a(puts.DA_eo)
 __c30_signature
                  0x000c9e          0x6 c:/program files (x86)/microchip/xc16/v1.36/bin/bin/../../lib\liblega-c-elf.a(strcat.DA_eo)
 __c30_signature
                  0x000ca4          0x6 c:/program files (x86)/microchip/xc16/v1.36/bin/bin/../../lib\liblega-c-elf.a(strchr.DA_eo)
 __c30_signature
                  0x000caa          0x6 c:/program files (x86)/microchip/xc16/v1.36/bin/bin/../../lib\liblega-c-elf.a(strcmp.DA_eo)
 __c30_signature
                  0x000cb0          0x6 c:/program files (x86)/microchip/xc16/v1.36/bin/bin/../../lib\liblega-c-elf.a(strcpy.DA_eo)
 __c30_signature
                  0x000cb6          0x6 c:/program files (x86)/microchip/xc16/v1.36/bin/bin/../../lib\liblega-c-elf.a(strlen.DA_eo)
 __c30_signature
                  0x000cbc          0x6 c:/program files (x86)/microchip/xc16/v1.36/bin/bin/../../lib\liblega-c-elf.a(strncmp.DA_eo)
 __c30_signature
                  0x000cc2          0x6 c:/program files (x86)/microchip/xc16/v1.36/bin/bin/../../lib\liblega-c-elf.a(strncpy.DA_eo)
 __c30_signature
                  0x000cc8          0x6 c:/program files (x86)/microchip/xc16/v1.36/bin/bin/../../lib\liblega-c-elf.a(strrchr.DA_eo)
 __c30_signature
                  0x000cce          0x6 c:/program files (x86)/microchip/xc16/v1.36/bin/bin/../../lib\liblega-c-elf.a(strstr.DA_eo)
 __c30_signature
                  0x000cd4          0x6 c:/program files (x86)/microchip/xc16/v1.36/bin/bin/../../lib\liblega-c-elf.a(strtok.DA_eo)
 __c30_signature
                  0x000cda          0x6 c:/program files (x86)/microchip/xc16/v1.36/bin/bin/../../lib\liblega-c-elf.a(xfiles.DA_eo)
 __c30_signature
                  0x000ce0          0x6 c:/program files (x86)/microchip/xc16/v1.36/bin/bin/../../lib\liblega-c-elf.a(xstoul.DA_eo)
 __c30_signature
                  0x000ce6          0x6 c:/program files (x86)/microchip/xc16/v1.36/bin/bin/../../lib\liblega-c-elf.a(vsprintf.DA_eo)
 __c30_signature
                  0x000cec          0x6 c:/program files (x86)/microchip/xc16/v1.36/bin/bin/../../lib\liblega-c-elf.a(xprintf.DA_eo)
 __c30_signature
                  0x000cf2          0x6 c:/program files (x86)/microchip/xc16/v1.36/bin/bin/../../lib\liblega-c-elf.a(xputfld.DA_eo)
 __c30_signature
                  0x000cf8          0x6 c:/program files (x86)/microchip/xc16/v1.36/bin/bin/../../lib\liblega-c-elf.a(isspace.DA_elso)
 __c30_signature
                  0x000cfe          0x6 c:/program files (x86)/microchip/xc16/v1.36/bin/bin/../../lib\liblega-c-elf.a(tolower.DA_elso)
 __c30_signature
                  0x000d04          0x6 c:/program files (x86)/microchip/xc16/v1.36/bin/bin/../../lib\liblega-c-elf.a(errno.DA_elo)
 __c30_signature
                  0x000d0a          0x6 c:/program files (x86)/microchip/xc16/v1.36/bin/bin/../../lib\liblega-c-elf.a(xvacopy.DA_elo)
 __c30_signature
                  0x000d10          0x6 c:/program files (x86)/microchip/xc16/v1.36/bin/bin/../../lib\liblega-c-elf.a(printf_cdfFnopsuxX.DAeo)
 __c30_signature
                  0x000d16          0x6 c:/program files (x86)/microchip/xc16/v1.36/bin/bin/../../lib\liblega-c-elf.a(xprintf_cdfFnopsuxX.DAeo)
 __c30_signature
                  0x000d1c          0x6 c:/program files (x86)/microchip/xc16/v1.36/bin/bin/../../lib\liblega-c-elf.a(xputfld_cdfFnopsuxX.DAeo)
 __c30_signature
                  0x000d22          0x6 c:/program files (x86)/microchip/xc16/v1.36/bin/bin/../../lib\liblega-c-elf.a(xldtob_cdfFnopsuxX.DAeo)
 __c30_signature
                  0x000d28          0x6 c:/program files (x86)/microchip/xc16/v1.36/bin/bin/../../lib\liblega-c-elf.a(xgenld_cdfFnopsuxX.DAeo)
 __c30_signature
                  0x000d2e          0x6 c:/program files (x86)/microchip/xc16/v1.36/bin/bin/../../lib\liblega-c-elf.a(sprintf_cdnopsuxX.DAeo)
 __c30_signature
                  0x000d34          0x6 c:/program files (x86)/microchip/xc16/v1.36/bin/bin/../../lib\liblega-c-elf.a(div.DA_eo)
 __c30_signature
                  0x000d3a          0x6 c:/program files (x86)/microchip/xc16/v1.36/bin/bin/../../lib\liblega-c-elf.a(fputs.DA_eo)
 __c30_signature
                  0x000d40          0x6 c:/program files (x86)/microchip/xc16/v1.36/bin/bin/../../lib\liblega-c-elf.a(fwrite.DA_eo)
 __c30_signature
                  0x000d46          0x6 c:/program files (x86)/microchip/xc16/v1.36/bin/bin/../../lib\liblega-c-elf.a(ldiv.DA_eo)
 __c30_signature
                  0x000d4c          0x6 c:/program files (x86)/microchip/xc16/v1.36/bin/bin/../../lib\liblega-c-elf.a(memchr.DA_eo)
 __c30_signature
                  0x000d52          0x6 c:/program files (x86)/microchip/xc16/v1.36/bin/bin/../../lib\liblega-c-elf.a(strcspn.DA_eo)
 __c30_signature
                  0x000d58          0x6 c:/program files (x86)/microchip/xc16/v1.36/bin/bin/../../lib\liblega-c-elf.a(strspn.DA_eo)
 __c30_signature
                  0x000d5e          0x6 c:/program files (x86)/microchip/xc16/v1.36/bin/bin/../../lib\liblega-c-elf.a(xfwprep.DA_eo)
 __c30_signature
                  0x000d64          0x6 c:/program files (x86)/microchip/xc16/v1.36/bin/bin/../../lib\liblega-c-elf.a(xldtob.DA_eo)
 __c30_signature
                  0x000d6a          0x6 c:/program files (x86)/microchip/xc16/v1.36/bin/bin/../../lib\liblega-c-elf.a(xldunsca.DA_eo)
 __c30_signature
                  0x000d70          0x6 c:/program files (x86)/microchip/xc16/v1.36/bin/bin/../../lib\liblega-c-elf.a(xlitob.DA_eo)
 __c30_signature
                  0x000d76          0x6 c:/program files (x86)/microchip/xc16/v1.36/bin/bin/../../lib\liblega-c-elf.a(xputtxt.DA_eo)
 __c30_signature
                  0x000d7c          0x6 c:/program files (x86)/microchip/xc16/v1.36/bin/bin/../../lib\liblega-c-elf.a(fclose.DA_elo)
 __c30_signature
                  0x000d82          0x6 c:/program files (x86)/microchip/xc16/v1.36/bin/bin/../../lib\liblega-c-elf.a(fflush.DA_elo)
 __c30_signature
                  0x000d88          0x6 c:/program files (x86)/microchip/xc16/v1.36/bin/bin/../../lib\liblega-c-elf.a(xatexit.DA_elo)
 __c30_signature
                  0x000d8e          0x6 c:/program files (x86)/microchip/xc16/v1.36/bin/bin/../../lib\liblega-c-elf.a(xdnorm.DA_elo)
 __c30_signature
                  0x000d94          0x6 c:/program files (x86)/microchip/xc16/v1.36/bin/bin/../../lib\liblega-c-elf.a(xldscale.DA_elo)
 __c30_signature
                  0x000d9a          0x6 c:/program files (x86)/microchip/xc16/v1.36/bin/bin/../../lib\liblega-c-elf.a(free.DA_eo)
 __c30_signature
                  0x000da0          0x6 c:/program files (x86)/microchip/xc16/v1.36/bin/bin/../../lib\liblega-c-elf.a(malloc.DA_eo)
 __c30_signature
                  0x000da6          0x6 c:/program files (x86)/microchip/xc16/v1.36/bin/bin/../../lib\liblega-c-elf.a(xgenld.DA_eo)
 __c30_signature
                  0x000dac          0x6 c:/program files (x86)/microchip/xc16/v1.36/bin/bin/../../lib\liblega-c-elf.a(xgetmem.DA_eo)
 __c30_signature
                  0x000db2          0x6 c:/program files (x86)/microchip/xc16/v1.36/bin/bin/../../lib\liblega-pic30-elf.a(closeda.Leo)
 __c30_signature
                  0x000db8          0x6 c:/program files (x86)/microchip/xc16/v1.36/bin/bin/../../lib\liblega-pic30-elf.a(writeda.Leo)
 __c30_signature
                  0x000dbe          0x6 c:/program files (x86)/microchip/xc16/v1.36/bin/bin/../../lib\liblega-pic30-elf.a(removeda.Leo)
 __c30_signature
                  0x000dc4          0x6 c:/program files (x86)/microchip/xc16/v1.36/bin/bin/../../lib\liblega-pic30-elf.a(sbrkda.Leo)
 __c30_signature
                  0x000dca          0x6 c:/program files (x86)/microchip/xc16/v1.36/bin/bin/../../lib\liblega-pic30-elf.a(c30_uartda.Leo)
 __c30_signature
                  0x000dd0          0x6 c:/program files (x86)/microchip/xc16/v1.36/bin/bin/../../lib\liblega-pic30-elf.a(brkda.Lelo)
 __c30_signature
                  0x000dd6          0x6 c:/program files (x86)/microchip/xc16/v1.36/bin/bin/../../lib\libm-elf.a(deqltle.daeo)
 __c30_signature
                  0x000ddc          0x6 c:/program files (x86)/microchip/xc16/v1.36/bin/bin/../../lib\libm-elf.a(dgtge.daeo)
 __c30_signature
                  0x000de2          0x6 c:/program files (x86)/microchip/xc16/v1.36/bin/bin/../../lib\libm-elf.a(divdf3.daeo)
 __c30_signature
                  0x000de8          0x6 c:/program files (x86)/microchip/xc16/v1.36/bin/bin/../../lib\libm-elf.a(divsi3.daeo)
 __c30_signature
                  0x000dee          0x6 c:/program files (x86)/microchip/xc16/v1.36/bin/bin/../../lib\libm-elf.a(dpack.daeo)
 __c30_signature
                  0x000df4          0x6 c:/program files (x86)/microchip/xc16/v1.36/bin/bin/../../lib\libm-elf.a(dunpack2.daeo)
 __c30_signature
                  0x000dfa          0x6 c:/program files (x86)/microchip/xc16/v1.36/bin/bin/../../lib\libm-elf.a(extendsfdf.daeo)
 __c30_signature
                  0x000e00          0x6 c:/program files (x86)/microchip/xc16/v1.36/bin/bin/../../lib\libm-elf.a(fixdfsi.daeo)
 __c30_signature
                  0x000e06          0x6 c:/program files (x86)/microchip/xc16/v1.36/bin/bin/../../lib\libm-elf.a(floatsidf.daeo)
 __c30_signature
                  0x000e0c          0x6 c:/program files (x86)/microchip/xc16/v1.36/bin/bin/../../lib\libm-elf.a(muldf3.daeo)
 __c30_signature
                  0x000e12          0x6 c:/program files (x86)/microchip/xc16/v1.36/bin/bin/../../lib\libm-elf.a(subdf3.daeo)
 __c30_signature
                  0x000e18          0x6 c:/program files (x86)/microchip/xc16/v1.36/bin/bin/../../lib\libm-elf.a(mulsi3.daeo)
 __c30_signature
                  0x000e1e          0x6 c:/program files (x86)/microchip/xc16/v1.36/bin/bin/../../lib\libm-elf.a(divmoddi3.daeo)
 __c30_signature
                  0x000e24          0x6 c:/program files (x86)/microchip/xc16/v1.36/bin/bin/../../lib\libm-elf.a(adddf3.daeo)
 __c30_signature
                  0x000e2a          0x6 c:/program files (x86)/microchip/xc16/v1.36/bin/bin/../../lib\libm-elf.a(dcompare.daeo)
 __c30_signature
                  0x000e30          0x6 c:/program files (x86)/microchip/xc16/v1.36/bin/bin/../../lib\libm-elf.a(dpropagateNaN.daeo)
 __c30_signature
                  0x000e36          0x6 c:/program files (x86)/microchip/xc16/v1.36/bin/bin/../../lib\libm-elf.a(dtype.daeo)
 __c30_signature
                  0x000e3c          0x6 c:/program files (x86)/microchip/xc16/v1.36/bin/bin/../../lib\libm-elf.a(dunpack.daeo)
 __c30_signature
                  0x000e42          0x6 c:/program files (x86)/microchip/xc16/v1.36/bin/bin/../../lib\libm-elf.a(floatdidf.daeo)
 __c30_signature
                  0x000e48          0x6 c:/program files (x86)/microchip/xc16/v1.36/bin/bin/../../lib\libm-elf.a(floatundidf.daeo)

.nbss               0x0800         0x2a
 .nbss              0x0800         0x14 build/default/production/001_Tick_10ms.o
                    0x0800                  _MobitTimes
                    0x0804                  _Timer2Cnt
 .nbss              0x0814          0xa build/default/production/013_Protocol.o
                    0x0814                  _g_need_ack
                    0x0816                  _g_door_state
                    0x0817                  _g_drlock_sta_chged
                    0x0818                  _g_dropen_sta_chged
                    0x0819                  _g_hbrake_sta_chged
                    0x081a                  _g_gps_trace_gap
                    0x081c                  _g_iap_update
 .nbss              0x081e          0x8 build/default/production/000_Main.o
                    0x081e                  _NonVolatileDATA
                    0x0822                  _is_mode_nb
                    0x0824                  _is_tcp_closed
 .nbss              0x0826          0x4 build/default/production/003_BG96.o
                    0x0826                  _rx_debug_flag
                    0x0828                  _bufferHead

MobitVAR            0x082a          0x2
 MobitVAR           0x082a          0x2 build/default/production/000_Main.o
                    0x082a                  _Mobit

.ndata              0x082c          0x2
 .ndata             0x082c          0x2 build/default/production/003_BG96.o
                    0x082c                  _errorCode

.nbss               0x082e          0x4
 .nbss              0x082e          0x2 build/default/production/005_BNO055.o
                    0x082e                  _Uart3_Read_Postion
 .nbss              0x0830          0x2 build/default/production/007_Uart.o
                    0x0830                  _Uart3_Use_Len

.ndata              0x0832          0x2
 .ndata             0x0832          0x2 build/default/production/013_Protocol.o
                    0x0832                  _g_hbeat_gap

.bss                0x0834       0x1190
 .bss               0x0834        0x81e build/default/production/003_BG96.o
                    0x0834                  _tmp_rbuf
                    0x083e                  _at_rbuf
                    0x0848                  _net_rbuf
                    0x0852                  _rxBuffer
                    0x0a52                  _atRingbuf
                    0x0c52                  _netRingbuf
                    0x0e52                  _tmpRingbuf
 .bss               0x1052        0x312 build/default/production/013_Protocol.o
                    0x1052                  _g_server_time
                    0x1073                  _g_msg_md5
                    0x1094                  _g_card_ids
                    0x11de                  _g_net_ip
                    0x11ff                  _g_net_port
                    0x1220                  _g_net_apn
                    0x1241                  _g_iap_update_md5
                    0x1262                  _g_iap_update_url
                    0x12e3                  _g_CHANGE_APN_name
 .bss               0x1364        0x240 build/default/production/007_Uart.o
                    0x1364                  _Uart2_Send_Buf
                    0x1564                  _Uart3_Buffer
 .bss               0x15a4        0x220 build/default/production/000_Main.o
                    0x15a4                  _one_svr_cmds
                    0x17a4                  _g_first_md5
 .bss               0x17c4        0x200 build/default/production/001_Tick_10ms.o
                    0x17c4                  _tmpuse_buf

.data               0x19c4        0x1e4
 .data              0x19c4         0x88 c:/program files (x86)/microchip/xc16/v1.36/bin/bin/../../lib\liblega-c-elf.a(xfiles.DA_eo)
                    0x19c4                  __Stdin
                    0x19ec                  __Stdout
                    0x1a14                  __Stderr
                    0x1a3c                  __Files
 .data              0x1a4c         0x7a c:/program files (x86)/microchip/xc16/v1.36/bin/bin/../../lib\liblega-c-elf.a(xldtob.DA_eo)
 .data              0x1ac6         0x58 c:/program files (x86)/microchip/xc16/v1.36/bin/bin/../../lib\liblega-c-elf.a(xldtob_cdfFnopsuxX.DAeo)
 .data              0x1b1e         0x4a c:/program files (x86)/microchip/xc16/v1.36/bin/bin/../../lib\liblega-c-elf.a(xstoul.DA_eo)
 .data              0x1b68         0x40 build/default/production/000_Main.o
                    0x1b68                  _g_bg96_imei
                    0x1b88                  _g_bg96_iccid

.bss                0x1ba8         0x40
 .bss               0x1ba8         0x40 build/default/production/005_BNO055.o
                    0x1ba8                  _send_buf

.data               0x1be8         0xd8
 .data              0x1be8         0x40 build/default/production/014_md5.o
                    0x1be8                  _PADDING
 .data              0x1c28         0x3e build/default/production/013_Protocol.o
                    0x1c28                  _cmd_list
 .data              0x1c66         0x22 c:/program files (x86)/microchip/xc16/v1.36/bin/bin/../../lib\liblega-c-elf.a(xlitob.DA_eo)
 .data              0x1c88         0x1a c:/program files (x86)/microchip/xc16/v1.36/bin/bin/../../lib\liblega-c-elf.a(xprintf.DA_eo)
 .data              0x1ca2         0x1a c:/program files (x86)/microchip/xc16/v1.36/bin/bin/../../lib\liblega-c-elf.a(xprintf_cdfFnopsuxX.DAeo)
 .data              0x1cbc          0x4 c:/program files (x86)/microchip/xc16/v1.36/bin/bin/../../lib\liblega-c-elf.a(strtok.DA_eo)

.bss                0x1cc0          0x8
 .bss               0x1cc0          0x4 c:/program files (x86)/microchip/xc16/v1.36/bin/bin/../../lib\liblega-c-elf.a(errno.DA_elo)
                    0x1cc0                  _errno
                    0x1cc2                  __Tls_setup_errno
 .bss               0x1cc4          0x4 c:/program files (x86)/microchip/xc16/v1.36/bin/bin/../../lib\liblega-c-elf.a(malloc.DA_eo)
                    0x1cc4                  __Aldata

.data               0x1cc8          0x2
 .data              0x1cc8          0x2 c:/program files (x86)/microchip/xc16/v1.36/bin/bin/../../lib\liblega-c-elf.a(xgenld_cdfFnopsuxX.DAeo)

.bss                0x1cca          0x2
 .bss               0x1cca          0x2 c:/program files (x86)/microchip/xc16/v1.36/bin/bin/../../lib\liblega-c-elf.a(fclose.DA_elo)

.data               0x1ccc          0x6
 .data              0x1ccc          0x2 c:/program files (x86)/microchip/xc16/v1.36/bin/bin/../../lib\liblega-c-elf.a(malloc.DA_eo)
                    0x1ccc                  __Size_block
 .data              0x1cce          0x2 c:/program files (x86)/microchip/xc16/v1.36/bin/bin/../../lib\liblega-c-elf.a(xgenld.DA_eo)
 .data              0x1cd0          0x2 c:/program files (x86)/microchip/xc16/v1.36/bin/bin/../../lib\liblega-pic30-elf.a(c30_uartda.Leo)
                    0x1cd0                  ___C30_UART

.bss                0x1cd2          0x2
 .bss               0x1cd2          0x2 c:/program files (x86)/microchip/xc16/v1.36/bin/bin/../../lib\liblega-pic30-elf.a(brkda.Lelo)
                    0x1cd2                  ___curbrk

.ivt._T1Interrupt
                  0x00001a          0x2
 .ivt._T1Interrupt
                  0x00001a          0x2 build/default/production/001_Tick_10ms.o

.ivt._T2Interrupt
                  0x000022          0x2
 .ivt._T2Interrupt
                  0x000022          0x2 build/default/production/001_Tick_10ms.o

.ivt._U2RXInterrupt
                  0x000050          0x2
 .ivt._U2RXInterrupt
                  0x000050          0x2 build/default/production/007_Uart.o

.ivt._U1RXInterrupt
                  0x00002a          0x2
 .ivt._U1RXInterrupt
                  0x00002a          0x2 build/default/production/007_Uart.o

.ivt._U3RXInterrupt
                  0x0000b8          0x2
 .ivt._U3RXInterrupt
                  0x0000b8          0x2 build/default/production/007_Uart.o

.config_ALTVREF
                  0x0abf2c          0x2
 .config_ALTVREF
                  0x0abf2c          0x2 build/default/production/009_System.o

.config_BTSWP     0x0abf28          0x2
 .config_BTSWP    0x0abf28          0x2 build/default/production/009_System.o

.config_DNVPEN    0x0abf24          0x2
 .config_DNVPEN
                  0x0abf24          0x2 build/default/production/009_System.o

.config_WDTCLK    0x0abf20          0x2
 .config_WDTCLK
                  0x0abf20          0x2 build/default/production/009_System.o

.config_FCKSM     0x0abf1c          0x2
 .config_FCKSM    0x0abf1c          0x2 build/default/production/009_System.o

.config_IESO      0x0abf18          0x2
 .config_IESO     0x0abf18          0x2 build/default/production/009_System.o

.config_BSLIM     0x0abf10          0x2
 .config_BSLIM    0x0abf10          0x2 build/default/production/009_System.o

.const              0xb182       0x2254 load address 0x003182  
 .const             0xb182        0xde0 build/default/production/003_BG96.o
 .const             0xbf62        0x47e build/default/production/013_Protocol.o
 .const             0xc3e0        0x3fc build/default/production/002_CLRC663.o
 .const             0xc7dc        0x38e build/default/production/005_BNO055.o
 .const             0xcb6a        0x33a build/default/production/000_Main.o
 .const             0xcea4        0x2fe build/default/production/007_Uart.o
 .const             0xd1a2        0x124 build/default/production/012_CLRC663_NFC.o
 .const             0xd2c6        0x110 build/default/production/001_Tick_10ms.o

.text             0x0053d6       0x77c0
 .text            0x0053d6       0x30dc build/default/production/003_BG96.o
                  0x0053d6                  _Configure_BG96
                  0x0053fa                  _SetPinDir
                  0x005404                  _SetPinVal
                  0x00540e                  _WriteToBG96
                  0x00542a                  _ReadByteFromRingBuffer
                  0x005450                  _ReadByteFromTmpRingBuffer
                  0x005476                  _ReadByteFromNetRingBuffer
                  0x00549c                  _IsRingBufferAvailable
                  0x0054aa                  _IsNetRingBufferAvailable
                  0x0054b8                  _IsTmpRingBufferAvailable
                  0x0054c6                  _WaitUartRxIdle
                  0x0054f6                  _WaitUartTmpRxIdle
                  0x005526                  _WaitUartNetRxIdle
                  0x005556                  _GetOneCompleteNetCmd
                  0x00555c                  _InitModule
                  0x0055d0                  _SetDevCommandEcho
                  0x0055fa                  _GetDevInformation
                  0x005626                  _GetDevVersion
                  0x005652                  _GetDevIMEI
                  0x005692                  _SetDevFunctionality
                  0x005700                  _DevLocalRate
                  0x0057cc                  _GetDevSimIMSI
                  0x0057f8                  _DevSimPIN
                  0x005864                  _GetDevSimICCID
                  0x0058ae                  _DevNetRegistrationStatus
                  0x005966                  _GetDevNetSignalQuality
                  0x0059a0                  _ScanOperatorNetwork
                  0x005a12                  _DevOperatorNetwork
                  0x005b50                  _GetDevNetworkInformation
                  0x005bf6                  _DevNetPacketCounter
                  0x005ca8                  _DevPowerDown
                  0x005cde                  _DevClock
                  0x005d7c                  _SetDevAPNParameters
                  0x005dee                  _ActivateDevAPN
                  0x005e34                  _DeactivateDevAPN
                  0x005e84                  _GetDevAPNIPAddress
                  0x005f00                  _InitAPN
                  0x005fea                  _OpenSocketService
                  0x006160                  _CloseSocketService
                  0x0061a8                  _SocketSendData
                  0x006254                  _SocketRecvData
                  0x0062ea                  _SocketSendHEXData
                  0x006346                  _SwitchAccessModes
                  0x0063b4                  _DevPingFunction
                  0x0064d8                  _DevNTPFunction
                  0x006566                  _ConfigDNSServer
                  0x0065c8                  _DevDNSFunction
                  0x006650                  _QueryLastErrorCode
                  0x00668c                  _WaitCheckSocketEvent
                  0x006706                  _InitSerial
                  0x00670e                  _SendDataAndCheck
                  0x00675a                  _SendATcommand
                  0x00679c                  _ReadResponseByteToBuffer
                  0x0067d2                  _ReadResponseToBuffer
                  0x00680a                  _ReadResponseAndSearchChr
                  0x00685a                  _ReadResponseAndSearch
                  0x0068b8                  _ReadResponseAndSearch_multi
                  0x0069ee                  _SendAndSearchChr
                  0x006a24                  _SendAndSearch
                  0x006a5a                  _SendAndSearch_multi
                  0x006a96                  _SearchStrBuffer
                  0x006ab6                  _SearchChrBuffer
                  0x006ae0                  _ReturnErrorCode
                  0x006b00                  _CleanBuffer
                  0x006b10                  _SetHTTPConfigParameters
                  0x006c1e                  _SetHTTPEnableSSL
                  0x006c5c                  _HTTPURL
                  0x006cfe                  _HTTPGET
                  0x006d88                  _HTTPPOST
                  0x006e2e                  _HTTTPPOSTFile
                  0x006ebe                  _HTTPRead
                  0x006f36                  _HTTPReadToFile
                  0x006fba                  _SetGNSSConstellation
                  0x006ff8                  _SetGNSSAutoRun
                  0x00704c                  _SetGNSSEnableNMEASentences
                  0x007090                  _TurnOnGNSS
                  0x007116                  _TurnOffGNSS
                  0x007138                  _GetGNSSPositionInformation
                  0x007186                  _GetGNSSNMEASentences
                  0x007238                  _GetFliesSpace
                  0x0072a4                  _GetFilesList
                  0x0072e0                  _DeleteFiles
                  0x00731e                  _UploadFiles
                  0x007374                  _DownloadFiles
                  0x0073ce                  _OpenFile
                  0x007432                  _ReadFile
                  0x007486                  _WriteFile
                  0x0074dc                  _CloseFlie
                  0x007516                  _SetFilePointer
                  0x007560                  _GetFilePointer
                  0x0075be                  _TruncateFile
                  0x0075f8                  _SetSSLParameters
                  0x0077de                  _SetSSLCertificate
                  0x007ae2                  _InitSSL
                  0x007d8a                  _OpenSSLSocket
                  0x007e4c                  _SSLSocketSendData
                  0x007e9c                  _SSLSocketRecvData
                  0x007ef8                  _CloseSSLSocket
                  0x007f32                  _QuerySSLSocketStatus
                  0x007f84                  _WaitCheckSSLSocketEvent
                  0x007fdc                  _SwithToGSM
                  0x007fe2                  _SwithToNB
                  0x007fe8                  _TcpClose
                  0x008004                  _QueryNetStatus
                  0x008026                  _BG96ATInit
                  0x008048                  _HeartBeat
                  0x008078                  _ConnectTcp
                  0x008112                  _ProcessEvent
                  0x008162                  _TcpClientDemo10s
                  0x0082ce                  _HttpClientDemo
                  0x008414                  _GNSSDemo
 .text            0x0084b2       0x20ce build/default/production/014_md5.o
                  0x0084b2                  _GAgent_MD5Init
                  0x0084f0                  _GAgent_MD5Update
                  0x0085e2                  _GAgent_MD5Final
                  0x00864a                  _GAgent_MD5Encode
                  0x0086e8                  _GAgent_MD5Decode
                  0x0087da                  _GAgent_MD5Transform
 .text            0x00a580       0x1052 build/default/production/002_CLRC663.o
                  0x00a580                  _clrc663_read_reg
                  0x00a5ac                  _clrc663_write_reg
                  0x00a5d2                  _clrc663_write_regs
                  0x00a664                  _clrc663_write_fifo
                  0x00a6b4                  _clrc663_read_fifo
                  0x00a702                  _clrc663_read_error
                  0x00a70c                  _clrc663_cmd_read_E2
                  0x00a738                  _clrc663_cmd_load_reg
                  0x00a76a                  _clrc663_cmd_load_protocol
                  0x00a78a                  _clrc663_cmd_transceive
                  0x00a7a4                  _clrc663_cmd_idle
                  0x00a7b0                  _clrc663_cmd_load_key_E2
                  0x00a7ca                  _clrc663_cmd_auth
                  0x00a80c                  _clrc663_cmd_load_key
                  0x00a824                  _clrc663_flush_fifo
                  0x00a830                  _clrc663_fifo_length
                  0x00a83c                  _clrc663_clear_irq0
                  0x00a848                  _clrc663_clear_irq1
                  0x00a854                  _clrc663_irq0
                  0x00a85e                  _clrc663_irq1
                  0x00a868                  _clrc663_transfer_E2_page
                  0x00a888                  _clrc663_print_block
                  0x00a8b4                  _clrc663_activate_timer
                  0x00a8da                  _clrc663_timer_set_control
                  0x00a8f2                  _clrc663_timer_set_reload
                  0x00a91e                  _clrc663_timer_set_value
                  0x00a94a                  _clrc663_timer_get_value
                  0x00a976                  _clrc663_AN11145_start_IQ_measurement
                  0x00a9f4                  _clrc663_AN11145_stop_IQ_measurement
                  0x00aa0c                  _clrc663_AN1102_recommended_registers_skip
                  0x00ab48                  _clrc663_AN1102_recommended_registers
                  0x00ab56                  _clrc663_AN1102_recommended_registers_no_transmitter
                  0x00ab64                  _CLRC663_configure_communication_protocol
                  0x00abf6                  _clrc663_iso14443a_REQA
                  0x00ac00                  _clrc663_iso14443a_WUPA
                  0x00ac0a                  _clrc663_iso14443a_WUPA_REQA
                  0x00acc4                  _clrc663_iso14443a_select
                  0x00b1e4                  _clrc663_communicate
                  0x00b2ae                  _clrc663_MF_auth
                  0x00b32c                  _clrc663_MF_read_block
                  0x00b3e4                  _clrc663_MF_write_block
                  0x00b514                  _clrc663_MF_deauth
                  0x00b520                  _clrc663_MF_example_dump
 .text            0x00b5d2        0xd32 build/default/production/005_BNO055.o
                  0x00b5d2                  _Uart3_Clear
                  0x00b5e4                  _Uart3_Getc
                  0x00b938                  _bno055_verify_chip
                  0x00b998                  _bno055_read_accel
                  0x00b9e8                  _bno055_read_gyro
                  0x00ba38                  _bno055_read_mag
                  0x00ba88                  _bno055_read_quat
                  0x00baea                  _bno055_read_eul
                  0x00bb3a                  _bno055_read_lia
                  0x00bb8a                  _bno055_read_grv
                  0x00bbda                  _bno055_read_calibrate_sta
                  0x00bc82                  _bno055_read_temp
                  0x00bc96                  _bno055_read_status
                  0x00bcee                  _bno055_set_axis_remap
                  0x00bd2e                  _bno055_set_axis_sign
                  0x00bd72                  _bno055_enter_suspend_mode
                  0x00bdc6                  _bno055_enter_normal_mode
                  0x00be1a                  _bno055_initial
                  0x00bf02                  _bno055_calibrate_demo
                  0x00bf46                  _bno055_set_ext_crystal
                  0x00bfc4                  _bno055_setup
                  0x00c004                  _bno055_demo
                  0x00c2e4                  _Configure_BNO055
 .text            0x00c304        0x500 build/default/production/013_Protocol.o
                  0x00c304                  _calc_first_md5
                  0x00c364                  _get_mobit_cmd_count
                  0x00c382                  _is_supported_mobit_cmd
                  0x00c3ee                  _parse_mobit_msg
 .text            0x00c804        0x392 build/default/production/012_CLRC663_NFC.o
                  0x00c804                  _print_block
                  0x00c85c                  _print_block_01
                  0x00c8b8                  _print_card_ID_block
                  0x00c92e                  _check_valid_card
                  0x00c960                  _print_PUPI
                  0x00c978                  _print_serial_nr
                  0x00c990                  _bitRead
                  0x00c9ae                  _shift
                  0x00ca42                  _print_card_ID
                  0x00ca58                  _read_iso14443B_nfc_card

.dinit            0x00cb96        0x2b8
 .dinit           0x00cb96        0x2b8 data_init

.text             0x00ce4e        0x94a
 .text            0x00ce4e        0x238 build/default/production/000_Main.o
                  0x00ce4e                  _process_bg96
                  0x00cfd0                  _main
 .text            0x00d086        0x22c build/default/production/008_RingBuffer.o
                  0x00d086                  _ringbuffer_init
                  0x00d0b0                  _ringbuffer_write
                  0x00d108                  _ringbuffer_write_byte
                  0x00d144                  _ringbuffer_read
                  0x00d1a2                  _ringbuffer_read_len
                  0x00d228                  _ringbuffer_clear
                  0x00d242                  _ringbuffer_buf_use_size
                  0x00d29c                  _ringbuffer_buf_free_size
 .text            0x00d2b2        0x1e4 build/default/production/007_Uart.o
                  0x00d2b2                  _Uart1_Init
                  0x00d2fc                  _Uart2_Init
                  0x00d346                  _Uart3_Init
                  0x00d390                  _fputc
                  0x00d3ae                  _Uart1_Putc
                  0x00d3ca                  _Uart2_Putc
                  0x00d3e6                  _Uart3_Putc
                  0x00d400                  _uart3_write_bytes
                  0x00d42a                  _Uart2_String
                  0x00d458                  _Uart2_Printf
 .text            0x00d496        0x1a0 build/default/production/011_Spi.o
                  0x00d496                  _clrc663_SPI_init
                  0x00d508                  _SPI2_Exchange
                  0x00d538                  _clrc663_SPI_write
                  0x00d548                  _SPI2_ExchangeBuffer
                  0x00d612                  _clrc663_SPI_transfer
                  0x00d626                  _clrc663_SPI_select
                  0x00d62e                  _clrc663_SPI_unselect
 .text            0x00d636        0x104 build/default/production/001_Tick_10ms.o
                  0x00d636                  _Configure_Tick_10ms
                  0x00d65e                  _Configure_Tick2_10ms
                  0x00d686                  _delay_ms
                  0x00d6a2                  _DelayMs
                  0x00d6be                  _GetTimeStamp
                  0x00d6c8                  _isDelayTimeout
 .text            0x00d73a         0x4a build/default/production/006_Gpio.o
                  0x00d73a                  _GPIOB_Init
                  0x00d756                  _GPIOB_SetPin
 .text            0x00d784          0xe build/default/production/009_System.o
                  0x00d784                  _System_Config
 .text            0x00d792          0x6 build/default/production/004_LB1938.o
                  0x00d792                  _Configure_LB1938
